MPLINK 5.08, LINKER
Linker Map File - Created Thu Dec 20 20:22:58 2018

                                 Section Info
                  Section       Type    Address   Location Size(Bytes)
                ---------  ---------  ---------  ---------  ---------
                   .org_0       code   0x000000    program   0x000002
                   .org_1       code   0x000004    program   0x000ff4
                   .cinit    romdata   0x0007fe    program   0x000004
.config_8007_BUILD/DEFAULT/PRODUCTION/MUSIC_B       code   0x008007    program   0x000002
.config_8008_BUILD/DEFAULT/PRODUCTION/MUSIC_B       code   0x008008    program   0x000002
                stack_seg      udata   0x000020       data   0x000010
                  var_seg      udata   0x000070       data   0x00000e



                              Program Memory Usage 
                               Start         End      
                           ---------   ---------      
                            0x000000    0x000000      
                            0x000004    0x0007ff      
                            0x008007    0x008008      
            2047 out of 2055 program addresses used, program memory utilization is 99%



                              Symbols - Sorted by Name
                     Name    Address   Location    Storage File                     
                ---------  ---------  ---------  --------- ---------                
             _.org_1_00D8   0x0000d8    program     static /home/jacques/github/spider_web/v2/pic12f1572_music_box_v2.X/music_box_v2.asm
             _.org_1_00E3   0x0000e3    program     static /home/jacques/github/spider_web/v2/pic12f1572_music_box_v2.X/music_box_v2.asm
             _.org_1_0165   0x000165    program     static /home/jacques/github/spider_web/v2/pic12f1572_music_box_v2.X/music_box_v2.asm
             _.org_1_0178   0x000178    program     static /home/jacques/github/spider_web/v2/pic12f1572_music_box_v2.X/music_box_v2.asm
                 a_bytown   0x00033f    program     static /home/jacques/github/spider_web/v2/pic12f1572_music_box_v2.X/music_box_v2.asm
            amazing_grace   0x0003d0    program     static /home/jacques/github/spider_web/v2/pic12f1572_music_box_v2.X/music_box_v2.asm
               beau_sapin   0x00061f    program     static /home/jacques/github/spider_web/v2/pic12f1572_music_box_v2.X/music_box_v2.asm
                bon_tabac   0x0005d4    program     static /home/jacques/github/spider_web/v2/pic12f1572_music_box_v2.X/music_box_v2.asm
                change_dc   0x000016    program     static /home/jacques/github/spider_web/v2/pic12f1572_music_box_v2.X/music_box_v2.asm
          claire_fontaine   0x0006d9    program     static /home/jacques/github/spider_web/v2/pic12f1572_music_box_v2.X/music_box_v2.asm
               cmd_octave   0x000137    program     static /home/jacques/github/spider_web/v2/pic12f1572_music_box_v2.X/music_box_v2.asm
           cmd_repeat_bar   0x00013f    program     static /home/jacques/github/spider_web/v2/pic12f1572_music_box_v2.X/music_box_v2.asm
          cmd_repeat_loop   0x000145    program     static /home/jacques/github/spider_web/v2/pic12f1572_music_box_v2.X/music_box_v2.asm
               cmd_stroke   0x00013b    program     static /home/jacques/github/spider_web/v2/pic12f1572_music_box_v2.X/music_box_v2.asm
     config_hbled_control   0x0000a9    program     static /home/jacques/github/spider_web/v2/pic12f1572_music_box_v2.X/music_box_v2.asm
               cwg_config   0x00009f    program     static /home/jacques/github/spider_web/v2/pic12f1572_music_box_v2.X/music_box_v2.asm
          deutschlandlied   0x0002dc    program     static /home/jacques/github/spider_web/v2/pic12f1572_music_box_v2.X/music_box_v2.asm
                   div256   0x000106    program     static /home/jacques/github/spider_web/v2/pic12f1572_music_box_v2.X/music_box_v2.asm
                div2_loop   0x000187    program     static /home/jacques/github/spider_web/v2/pic12f1572_music_box_v2.X/music_box_v2.asm
                     div8   0x0001ba    program     static /home/jacques/github/spider_web/v2/pic12f1572_music_box_v2.X/music_box_v2.asm
                div8_done   0x0001c2    program     static /home/jacques/github/spider_web/v2/pic12f1572_music_box_v2.X/music_box_v2.asm
                 div_done   0x00018f    program     static /home/jacques/github/spider_web/v2/pic12f1572_music_box_v2.X/music_box_v2.asm
               douce_nuit   0x00023c    program     static /home/jacques/github/spider_web/v2/pic12f1572_music_box_v2.X/music_box_v2.asm
                  env_isr   0x00001b    program     static /home/jacques/github/spider_web/v2/pic12f1572_music_box_v2.X/music_box_v2.asm
            frere_jacques   0x00051d    program     static /home/jacques/github/spider_web/v2/pic12f1572_music_box_v2.X/music_box_v2.asm
                fur_elise   0x000747    program     static /home/jacques/github/spider_web/v2/pic12f1572_music_box_v2.X/music_box_v2.asm
            go_down_moses   0x00037c    program     static /home/jacques/github/spider_web/v2/pic12f1572_music_box_v2.X/music_box_v2.asm
       god_save_the_queen   0x000471    program     static /home/jacques/github/spider_web/v2/pic12f1572_music_box_v2.X/music_box_v2.asm
             greensleeves   0x00040a    program     static /home/jacques/github/spider_web/v2/pic12f1572_music_box_v2.X/music_box_v2.asm
           hbled_ctrl_isr   0x000004    program     static /home/jacques/github/spider_web/v2/pic12f1572_music_box_v2.X/music_box_v2.asm
                     init   0x0000bf    program     static /home/jacques/github/spider_web/v2/pic12f1572_music_box_v2.X/music_box_v2.asm
             invert_slope   0x000014    program     static /home/jacques/github/spider_web/v2/pic12f1572_music_box_v2.X/music_box_v2.asm
                      isr   0x000004    program     static /home/jacques/github/spider_web/v2/pic12f1572_music_box_v2.X/music_box_v2.asm
                 isr_exit   0x000022    program     static /home/jacques/github/spider_web/v2/pic12f1572_music_box_v2.X/music_box_v2.asm
              jingle_bell   0x000658    program     static /home/jacques/github/spider_web/v2/pic12f1572_music_box_v2.X/music_box_v2.asm
             joyeux_anniv   0x0005fc    program     static /home/jacques/github/spider_web/v2/pic12f1572_music_box_v2.X/music_box_v2.asm
              korobeiniki   0x00059b    program     static /home/jacques/github/spider_web/v2/pic12f1572_music_box_v2.X/music_box_v2.asm
                  l_hiver   0x0001e9    program     static /home/jacques/github/spider_web/v2/pic12f1572_music_box_v2.X/music_box_v2.asm
              legato_mode   0x0001b8    program     static /home/jacques/github/spider_web/v2/pic12f1572_music_box_v2.X/music_box_v2.asm
                low_power   0x00014f    program     static /home/jacques/github/spider_web/v2/pic12f1572_music_box_v2.X/music_box_v2.asm
                     main   0x0000f6    program     static /home/jacques/github/spider_web/v2/pic12f1572_music_box_v2.X/music_box_v2.asm
                  melodia   0x0004a9    program     static /home/jacques/github/spider_web/v2/pic12f1572_music_box_v2.X/music_box_v2.asm
              melody_done   0x00014b    program     static /home/jacques/github/spider_web/v2/pic12f1572_music_box_v2.X/music_box_v2.asm
       morning_has_broken   0x00070c    program     static /home/jacques/github/spider_web/v2/pic12f1572_music_box_v2.X/music_box_v2.asm
           negative_slope   0x00000a    program     static /home/jacques/github/spider_web/v2/pic12f1572_music_box_v2.X/music_box_v2.asm
              normal_mode   0x0001a6    program     static /home/jacques/github/spider_web/v2/pic12f1572_music_box_v2.X/music_box_v2.asm
                 o_canada   0x000274    program     static /home/jacques/github/spider_web/v2/pic12f1572_music_box_v2.X/music_box_v2.asm
             oct_adj_done   0x0001d9    program     static /home/jacques/github/spider_web/v2/pic12f1572_music_box_v2.X/music_box_v2.asm
             oct_adj_loop   0x0001d6    program     static /home/jacques/github/spider_web/v2/pic12f1572_music_box_v2.X/music_box_v2.asm
                  ode_joy   0x000548    program     static /home/jacques/github/spider_web/v2/pic12f1572_music_box_v2.X/music_box_v2.asm
                    pause   0x00015e    program     static /home/jacques/github/spider_web/v2/pic12f1572_music_box_v2.X/music_box_v2.asm
                play_list   0x000087    program     static /home/jacques/github/spider_web/v2/pic12f1572_music_box_v2.X/music_box_v2.asm
                play_note   0x000169    program     static /home/jacques/github/spider_web/v2/pic12f1572_music_box_v2.X/music_box_v2.asm
           positive_slope   0x00000f    program     static /home/jacques/github/spider_web/v2/pic12f1572_music_box_v2.X/music_box_v2.asm
               reset_list   0x0000f5    program     static /home/jacques/github/spider_web/v2/pic12f1572_music_box_v2.X/music_box_v2.asm
             roi_dagobert   0x0004df    program     static /home/jacques/github/spider_web/v2/pic12f1572_music_box_v2.X/music_box_v2.asm
                    scale   0x000025    program     static /home/jacques/github/spider_web/v2/pic12f1572_music_box_v2.X/music_box_v2.asm
            set_biled_per   0x00010e    program     static /home/jacques/github/spider_web/v2/pic12f1572_music_box_v2.X/music_box_v2.asm
             set_duration   0x00019a    program     static /home/jacques/github/spider_web/v2/pic12f1572_music_box_v2.X/music_box_v2.asm
             set_envelope   0x00017e    program     static /home/jacques/github/spider_web/v2/pic12f1572_music_box_v2.X/music_box_v2.asm
            set_tone_freq   0x0001d0    program     static /home/jacques/github/spider_web/v2/pic12f1572_music_box_v2.X/music_box_v2.asm
            staccato_mode   0x0001b4    program     static /home/jacques/github/spider_web/v2/pic12f1572_music_box_v2.X/music_box_v2.asm
               staff_loop   0x000112    program     static /home/jacques/github/spider_web/v2/pic12f1572_music_box_v2.X/music_box_v2.asm
                     tone   0x000134    program     static /home/jacques/github/spider_web/v2/pic12f1572_music_box_v2.X/music_box_v2.asm
                update_dc   0x0001ca    program     static /home/jacques/github/spider_web/v2/pic12f1572_music_box_v2.X/music_box_v2.asm
               update_env   0x0001ce    program     static /home/jacques/github/spider_web/v2/pic12f1572_music_box_v2.X/music_box_v2.asm
                     accH   0x00007a       data     static /home/jacques/github/spider_web/v2/pic12f1572_music_box_v2.X/music_box_v2.asm
                     accL   0x000079       data     static /home/jacques/github/spider_web/v2/pic12f1572_music_box_v2.X/music_box_v2.asm
                durationH   0x00007c       data     static /home/jacques/github/spider_web/v2/pic12f1572_music_box_v2.X/music_box_v2.asm
                durationL   0x00007b       data     static /home/jacques/github/spider_web/v2/pic12f1572_music_box_v2.X/music_box_v2.asm
                    flags   0x000070       data     static /home/jacques/github/spider_web/v2/pic12f1572_music_box_v2.X/music_box_v2.asm
               led_dc_inc   0x00007d       data     static /home/jacques/github/spider_web/v2/pic12f1572_music_box_v2.X/music_box_v2.asm
                 note_idx   0x000071       data     static /home/jacques/github/spider_web/v2/pic12f1572_music_box_v2.X/music_box_v2.asm
                   octave   0x000073       data     static /home/jacques/github/spider_web/v2/pic12f1572_music_box_v2.X/music_box_v2.asm
                     play   0x000074       data     static /home/jacques/github/spider_web/v2/pic12f1572_music_box_v2.X/music_box_v2.asm
              repeat_mark   0x000072       data     static /home/jacques/github/spider_web/v2/pic12f1572_music_box_v2.X/music_box_v2.asm
                    stack   0x000020       data     static /home/jacques/github/spider_web/v2/pic12f1572_music_box_v2.X/music_box_v2.asm
                   stroke   0x000075       data     static /home/jacques/github/spider_web/v2/pic12f1572_music_box_v2.X/music_box_v2.asm
                    temp3   0x000078       data     static /home/jacques/github/spider_web/v2/pic12f1572_music_box_v2.X/music_box_v2.asm
                    tempH   0x000077       data     static /home/jacques/github/spider_web/v2/pic12f1572_music_box_v2.X/music_box_v2.asm
                    tempL   0x000076       data     static /home/jacques/github/spider_web/v2/pic12f1572_music_box_v2.X/music_box_v2.asm



                              Symbols - Sorted by Address
                     Name    Address   Location    Storage File                     
                ---------  ---------  ---------  --------- ---------                
                      isr   0x000004    program     static /home/jacques/github/spider_web/v2/pic12f1572_music_box_v2.X/music_box_v2.asm
           hbled_ctrl_isr   0x000004    program     static /home/jacques/github/spider_web/v2/pic12f1572_music_box_v2.X/music_box_v2.asm
           negative_slope   0x00000a    program     static /home/jacques/github/spider_web/v2/pic12f1572_music_box_v2.X/music_box_v2.asm
           positive_slope   0x00000f    program     static /home/jacques/github/spider_web/v2/pic12f1572_music_box_v2.X/music_box_v2.asm
             invert_slope   0x000014    program     static /home/jacques/github/spider_web/v2/pic12f1572_music_box_v2.X/music_box_v2.asm
                change_dc   0x000016    program     static /home/jacques/github/spider_web/v2/pic12f1572_music_box_v2.X/music_box_v2.asm
                  env_isr   0x00001b    program     static /home/jacques/github/spider_web/v2/pic12f1572_music_box_v2.X/music_box_v2.asm
                 isr_exit   0x000022    program     static /home/jacques/github/spider_web/v2/pic12f1572_music_box_v2.X/music_box_v2.asm
                    scale   0x000025    program     static /home/jacques/github/spider_web/v2/pic12f1572_music_box_v2.X/music_box_v2.asm
                play_list   0x000087    program     static /home/jacques/github/spider_web/v2/pic12f1572_music_box_v2.X/music_box_v2.asm
               cwg_config   0x00009f    program     static /home/jacques/github/spider_web/v2/pic12f1572_music_box_v2.X/music_box_v2.asm
     config_hbled_control   0x0000a9    program     static /home/jacques/github/spider_web/v2/pic12f1572_music_box_v2.X/music_box_v2.asm
                     init   0x0000bf    program     static /home/jacques/github/spider_web/v2/pic12f1572_music_box_v2.X/music_box_v2.asm
             _.org_1_00D8   0x0000d8    program     static /home/jacques/github/spider_web/v2/pic12f1572_music_box_v2.X/music_box_v2.asm
             _.org_1_00E3   0x0000e3    program     static /home/jacques/github/spider_web/v2/pic12f1572_music_box_v2.X/music_box_v2.asm
               reset_list   0x0000f5    program     static /home/jacques/github/spider_web/v2/pic12f1572_music_box_v2.X/music_box_v2.asm
                     main   0x0000f6    program     static /home/jacques/github/spider_web/v2/pic12f1572_music_box_v2.X/music_box_v2.asm
                   div256   0x000106    program     static /home/jacques/github/spider_web/v2/pic12f1572_music_box_v2.X/music_box_v2.asm
            set_biled_per   0x00010e    program     static /home/jacques/github/spider_web/v2/pic12f1572_music_box_v2.X/music_box_v2.asm
               staff_loop   0x000112    program     static /home/jacques/github/spider_web/v2/pic12f1572_music_box_v2.X/music_box_v2.asm
                     tone   0x000134    program     static /home/jacques/github/spider_web/v2/pic12f1572_music_box_v2.X/music_box_v2.asm
               cmd_octave   0x000137    program     static /home/jacques/github/spider_web/v2/pic12f1572_music_box_v2.X/music_box_v2.asm
               cmd_stroke   0x00013b    program     static /home/jacques/github/spider_web/v2/pic12f1572_music_box_v2.X/music_box_v2.asm
           cmd_repeat_bar   0x00013f    program     static /home/jacques/github/spider_web/v2/pic12f1572_music_box_v2.X/music_box_v2.asm
          cmd_repeat_loop   0x000145    program     static /home/jacques/github/spider_web/v2/pic12f1572_music_box_v2.X/music_box_v2.asm
              melody_done   0x00014b    program     static /home/jacques/github/spider_web/v2/pic12f1572_music_box_v2.X/music_box_v2.asm
                low_power   0x00014f    program     static /home/jacques/github/spider_web/v2/pic12f1572_music_box_v2.X/music_box_v2.asm
                    pause   0x00015e    program     static /home/jacques/github/spider_web/v2/pic12f1572_music_box_v2.X/music_box_v2.asm
             _.org_1_0165   0x000165    program     static /home/jacques/github/spider_web/v2/pic12f1572_music_box_v2.X/music_box_v2.asm
                play_note   0x000169    program     static /home/jacques/github/spider_web/v2/pic12f1572_music_box_v2.X/music_box_v2.asm
             _.org_1_0178   0x000178    program     static /home/jacques/github/spider_web/v2/pic12f1572_music_box_v2.X/music_box_v2.asm
             set_envelope   0x00017e    program     static /home/jacques/github/spider_web/v2/pic12f1572_music_box_v2.X/music_box_v2.asm
                div2_loop   0x000187    program     static /home/jacques/github/spider_web/v2/pic12f1572_music_box_v2.X/music_box_v2.asm
                 div_done   0x00018f    program     static /home/jacques/github/spider_web/v2/pic12f1572_music_box_v2.X/music_box_v2.asm
             set_duration   0x00019a    program     static /home/jacques/github/spider_web/v2/pic12f1572_music_box_v2.X/music_box_v2.asm
              normal_mode   0x0001a6    program     static /home/jacques/github/spider_web/v2/pic12f1572_music_box_v2.X/music_box_v2.asm
            staccato_mode   0x0001b4    program     static /home/jacques/github/spider_web/v2/pic12f1572_music_box_v2.X/music_box_v2.asm
              legato_mode   0x0001b8    program     static /home/jacques/github/spider_web/v2/pic12f1572_music_box_v2.X/music_box_v2.asm
                     div8   0x0001ba    program     static /home/jacques/github/spider_web/v2/pic12f1572_music_box_v2.X/music_box_v2.asm
                div8_done   0x0001c2    program     static /home/jacques/github/spider_web/v2/pic12f1572_music_box_v2.X/music_box_v2.asm
                update_dc   0x0001ca    program     static /home/jacques/github/spider_web/v2/pic12f1572_music_box_v2.X/music_box_v2.asm
               update_env   0x0001ce    program     static /home/jacques/github/spider_web/v2/pic12f1572_music_box_v2.X/music_box_v2.asm
            set_tone_freq   0x0001d0    program     static /home/jacques/github/spider_web/v2/pic12f1572_music_box_v2.X/music_box_v2.asm
             oct_adj_loop   0x0001d6    program     static /home/jacques/github/spider_web/v2/pic12f1572_music_box_v2.X/music_box_v2.asm
             oct_adj_done   0x0001d9    program     static /home/jacques/github/spider_web/v2/pic12f1572_music_box_v2.X/music_box_v2.asm
                  l_hiver   0x0001e9    program     static /home/jacques/github/spider_web/v2/pic12f1572_music_box_v2.X/music_box_v2.asm
               douce_nuit   0x00023c    program     static /home/jacques/github/spider_web/v2/pic12f1572_music_box_v2.X/music_box_v2.asm
                 o_canada   0x000274    program     static /home/jacques/github/spider_web/v2/pic12f1572_music_box_v2.X/music_box_v2.asm
          deutschlandlied   0x0002dc    program     static /home/jacques/github/spider_web/v2/pic12f1572_music_box_v2.X/music_box_v2.asm
                 a_bytown   0x00033f    program     static /home/jacques/github/spider_web/v2/pic12f1572_music_box_v2.X/music_box_v2.asm
            go_down_moses   0x00037c    program     static /home/jacques/github/spider_web/v2/pic12f1572_music_box_v2.X/music_box_v2.asm
            amazing_grace   0x0003d0    program     static /home/jacques/github/spider_web/v2/pic12f1572_music_box_v2.X/music_box_v2.asm
             greensleeves   0x00040a    program     static /home/jacques/github/spider_web/v2/pic12f1572_music_box_v2.X/music_box_v2.asm
       god_save_the_queen   0x000471    program     static /home/jacques/github/spider_web/v2/pic12f1572_music_box_v2.X/music_box_v2.asm
                  melodia   0x0004a9    program     static /home/jacques/github/spider_web/v2/pic12f1572_music_box_v2.X/music_box_v2.asm
             roi_dagobert   0x0004df    program     static /home/jacques/github/spider_web/v2/pic12f1572_music_box_v2.X/music_box_v2.asm
            frere_jacques   0x00051d    program     static /home/jacques/github/spider_web/v2/pic12f1572_music_box_v2.X/music_box_v2.asm
                  ode_joy   0x000548    program     static /home/jacques/github/spider_web/v2/pic12f1572_music_box_v2.X/music_box_v2.asm
              korobeiniki   0x00059b    program     static /home/jacques/github/spider_web/v2/pic12f1572_music_box_v2.X/music_box_v2.asm
                bon_tabac   0x0005d4    program     static /home/jacques/github/spider_web/v2/pic12f1572_music_box_v2.X/music_box_v2.asm
             joyeux_anniv   0x0005fc    program     static /home/jacques/github/spider_web/v2/pic12f1572_music_box_v2.X/music_box_v2.asm
               beau_sapin   0x00061f    program     static /home/jacques/github/spider_web/v2/pic12f1572_music_box_v2.X/music_box_v2.asm
              jingle_bell   0x000658    program     static /home/jacques/github/spider_web/v2/pic12f1572_music_box_v2.X/music_box_v2.asm
          claire_fontaine   0x0006d9    program     static /home/jacques/github/spider_web/v2/pic12f1572_music_box_v2.X/music_box_v2.asm
       morning_has_broken   0x00070c    program     static /home/jacques/github/spider_web/v2/pic12f1572_music_box_v2.X/music_box_v2.asm
                fur_elise   0x000747    program     static /home/jacques/github/spider_web/v2/pic12f1572_music_box_v2.X/music_box_v2.asm
                    stack   0x000020       data     static /home/jacques/github/spider_web/v2/pic12f1572_music_box_v2.X/music_box_v2.asm
                    flags   0x000070       data     static /home/jacques/github/spider_web/v2/pic12f1572_music_box_v2.X/music_box_v2.asm
                 note_idx   0x000071       data     static /home/jacques/github/spider_web/v2/pic12f1572_music_box_v2.X/music_box_v2.asm
              repeat_mark   0x000072       data     static /home/jacques/github/spider_web/v2/pic12f1572_music_box_v2.X/music_box_v2.asm
                   octave   0x000073       data     static /home/jacques/github/spider_web/v2/pic12f1572_music_box_v2.X/music_box_v2.asm
                     play   0x000074       data     static /home/jacques/github/spider_web/v2/pic12f1572_music_box_v2.X/music_box_v2.asm
                   stroke   0x000075       data     static /home/jacques/github/spider_web/v2/pic12f1572_music_box_v2.X/music_box_v2.asm
                    tempL   0x000076       data     static /home/jacques/github/spider_web/v2/pic12f1572_music_box_v2.X/music_box_v2.asm
                    tempH   0x000077       data     static /home/jacques/github/spider_web/v2/pic12f1572_music_box_v2.X/music_box_v2.asm
                    temp3   0x000078       data     static /home/jacques/github/spider_web/v2/pic12f1572_music_box_v2.X/music_box_v2.asm
                     accL   0x000079       data     static /home/jacques/github/spider_web/v2/pic12f1572_music_box_v2.X/music_box_v2.asm
                     accH   0x00007a       data     static /home/jacques/github/spider_web/v2/pic12f1572_music_box_v2.X/music_box_v2.asm
                durationL   0x00007b       data     static /home/jacques/github/spider_web/v2/pic12f1572_music_box_v2.X/music_box_v2.asm
                durationH   0x00007c       data     static /home/jacques/github/spider_web/v2/pic12f1572_music_box_v2.X/music_box_v2.asm
               led_dc_inc   0x00007d       data     static /home/jacques/github/spider_web/v2/pic12f1572_music_box_v2.X/music_box_v2.asm


