MPASM 5.76  /HOME/JACQUES/GITHUB/SPIDER_WEB/   12-19-2018  11:45:01         PAGE  1


LOC  OBJECT CODE     LINE SOURCE TEXT
  VALUE

                      00001 ;;;;;;;;;;;;;;;;;;;;;;;;;;;;;;;;;;;;;;;;;;;;;
                      00002 ; DATE:  2018-12-05
                      00003 ; AUTHOR: Jacques Deschenes, Copyright 2018
                      00004 ; DESCRIPTION:    
                      00005 ;   musix box built using a PIC12F1572
                      00006 ; LICENCE: GPLv3    
                      00007 ;;;;;;;;;;;;;;;;;;;;;;;;;;;;;;;;;;;;;;;;;;;;;    
                      00008     
                      00009 ;*******************************************************************************
                      00010 ;   This program is free software: you can redistribute it and/or modify
                      00011 ;    it under the terms of the GNU General Public License as published by
                      00012 ;    the Free Software Foundation, either version 3 of the License, or
                      00013 ;    (at your option) any later version.
                      00014 ;
                      00015 ;    This program is distributed in the hope that it will be useful,
                      00016 ;    but WITHOUT ANY WARRANTY; without even the implied warranty of
                      00017 ;    MERCHANTABILITY or FITNESS FOR A PARTICULAR PURPOSE.  See the
                      00018 ;    GNU General Public License for more details.
                      00019 ;
                      00020 ;    You should have received a copy of the GNU General Public License
                      00021 ;    along with this program.  If not, see <https://www.gnu.org/licenses/>
                      00022 ;*******************************************************************************
                      00023     
                      00024     include p12f1572.inc
                      00001         LIST
                      00002 
                      00003 ;==========================================================================
                      00004 ; Build date : Sep 19 2017
                      00005 ;  MPASM PIC12F1572 processor include
                      00006 ; 
                      00007 ;  (c) Copyright 1999-2017 Microchip Technology, All rights reserved
                      00008 ;==========================================================================
                      00009 
                      01601         LIST
                      00025     
8007   39E4           00026         __config _CONFIG1, _FOSC_INTOSC&_WDTE_OFF&_PWRTE_OFF&_BOREN_OFF&_MCLRE_ON
                      00027         
8008   1DFF           00028         __config _CONFIG2, _PLLEN_ON&_STVREN_OFF&_LPBOREN_OFF&_LVP_OFF
                      00029         
                      00030         radix dec
                      00031         
                      00032 ;;;;;;;;;;;;;   
                      00033 ; constants     
                      00034 ;;;;;;;;;;;;;   
  00003C8C            00035 ENV_CLK EQU 15500 ; clock after prescale for ENV pwm
  01E84800            00036 FOSC EQU 32000000  ; CPU oscillator frequency, PLLON
  007A1200            00037 FCYCLE EQU 8000000  ; instruction cycle frequency
  0000007D            00038 CPER EQU 125 ; intruction cycle in nanoseconds
                      00039 
                      00040 ; offset pwm registers
  00000000            00041 PWMPHL EQU 0
  00000001            00042 PWMPHH EQU 1 
  00000002            00043 PWMDCL EQU 2 
MPASM 5.76  /HOME/JACQUES/GITHUB/SPIDER_WEB/   12-19-2018  11:45:01         PAGE  2


LOC  OBJECT CODE     LINE SOURCE TEXT
  VALUE

  00000003            00044 PWMDCH EQU 3
  00000004            00045 PWMPRL EQU 4
  00000005            00046 PWMPRH EQU 5
  00000006            00047 PWMOFL EQU 6
  00000007            00048 PWMOFH EQU 7
  00000008            00049 PWMTMRL EQU 8
  00000009            00050 PWMTMRH EQU 9
  0000000A            00051 PWMCON EQU 10
  0000000B            00052 PWMINTE EQU 11
  0000000C            00053 PWMINTF EQU 12
  0000000D            00054 PWMCLKCON EQU 13 
  0000000E            00055 PWMLDCON EQU 14
  0000000F            00056 PWMOFCON EQU 15
                      00057 ; PWMCLKCON register 
  00000004            00058 PWMPS EQU 4 ; prescale select
  00000000            00059 PWMCS EQU 0 ; clock source select
                      00060  
                      00061 ; tone pwm
  00000D91            00062 TONE EQU PWM1PH
  00000000            00063 TONE_RA EQU RA0
                      00064  
                      00065 ; enveloppe pwm 
  00000DB1            00066 ENV EQU  PWM3PH
  00000013            00067 ENV_PIR EQU PIR3
  00000006            00068 ENV_INTF EQU PWM3IF
  00000093            00069 ENV_PIE EQU PIE3
  00000006            00070 ENV_INTE EQU PWM3IE 
  00000002            00071 ENV_RA EQU RA2
                      00072  
                      00073 ; bicolor LEDs control 
  00000DA1            00074 BILED EQU PWM2PH
  00000005            00075 BILEDA_RA EQU RA5
  00000004            00076 BILEDB_RA EQU RA4
  00000005            00077 BILED_IF EQU PWM2IF 
  00000005            00078 BILED_IE equ PWM2IF
  00000093            00079 BILED_PIE EQU PIE3
  00000013            00080 BILED_PIR EQU PIR3
                      00081 
                      00082 ; heart beat LED
  00000000            00083 HBEAT_LED EQU RA0
                      00084  
                      00085 ; tempered scale 2th octave
  00000000            00086 C2 EQU 0
  00000001            00087 C2s EQU 1
  00000001            00088 D2f EQU 1
  00000002            00089 D2 EQU 2
  00000003            00090 D2s EQU 3
  00000003            00091 E2f EQU 3 
  00000004            00092 E2 EQU 4
  00000005            00093 F2 EQU 5
  00000006            00094 F2s EQU 6
  00000006            00095 G2f EQU 6
  00000007            00096 G2 EQU 7
MPASM 5.76  /HOME/JACQUES/GITHUB/SPIDER_WEB/   12-19-2018  11:45:01         PAGE  3


LOC  OBJECT CODE     LINE SOURCE TEXT
  VALUE

  00000008            00097 G2s EQU 8
  00000008            00098 A2f EQU 8 
  00000009            00099 A2 EQU 9
  0000000A            00100 A2s EQU 10
  0000000A            00101 B2f EQU 10 
  0000000B            00102 B2  EQU 11
  0000000C            00103 C3  EQU 12
  0000000D            00104 C3s EQU 13
  0000000D            00105 D3f EQU 13
  0000000E            00106 D3  EQU 14
                      00107 ; code 15 reserved for pause
                      00108   
                      00109 ; notes names in french
  00000000            00110 DO2 EQU 0
  00000001            00111 DO2D EQU 1
  00000001            00112 RE2B EQU 1
  00000002            00113 RE2 EQU 2
  00000003            00114 RE2D EQU 3
  00000003            00115 MI2B EQU 3 
  00000004            00116 MI2 EQU 4
  00000005            00117 FA2 EQU 5
  00000006            00118 FA2D EQU 6
  00000006            00119 SOL2B EQU 6
  00000007            00120 SOL2 EQU 7
  00000008            00121 SOL2D EQU 8
  00000008            00122 LA2B EQU 8 
  00000009            00123 LA2 EQU 9
  0000000A            00124 LA2D EQU 10
  0000000A            00125 SI2B EQU 10 
  0000000B            00126 SI2  EQU 11
  0000000C            00127 DO3 EQU 12
  0000000D            00128 DO3D EQU 13
  0000000D            00129 RE3B EQU 13 
  0000000E            00130 RE3 EQU 14
                      00131  
                      00132  
                      00133 ; duration
  00000000            00134 WHOLE EQU 0
  00000001            00135 WHOLE_DOT EQU 1
  00000002            00136 HALF EQU 2
  00000003            00137 HALF_DOT EQU 3
  00000004            00138 QUARTER EQU 4
  00000005            00139 QUARTER_DOT EQU 5
  00000006            00140 HEIGTH EQU 6
  00000007            00141 HEIGTH_DOT EQU 7
  00000008            00142 SIXTEENTH EQU 8
  00000009            00143 SIXTEENTH_DOT EQU 9
                      00144 ; code 0xC to 0xF are commands
                      00145 ; repeat start bar in staff
  000000C0            00146 REPT_BAR EQU 0xC0 
                      00147 ; repeat section end here
  000000D0            00148 REPT_END EQU 0xD0 
                      00149 ; stroke switch
MPASM 5.76  /HOME/JACQUES/GITHUB/SPIDER_WEB/   12-19-2018  11:45:01         PAGE  4


LOC  OBJECT CODE     LINE SOURCE TEXT
  VALUE

  000000E0            00150 STROKE_SWITCH EQU 0xE0
                      00151 ; octave switch
  000000F0            00152 OCT_SWITCH EQU 0xF0   ; octave {O2,O3}
                      00153 ; commands mask
  000000C0            00154 CMD_MASK EQU 0xC0
                      00155 ; end of staff
  000000FF            00156 STAFF_END EQU 0xFF
                      00157 
                      00158 ; stroke type
  00000000            00159 NORMAL EQU 0
  00000001            00160 STACCATO EQU 1
  00000002            00161 LEGATO EQU 2
                      00162  
                      00163 ; octaves
  00000000            00164 O2 EQU 0
  00000001            00165 O3 EQU 1
  00000002            00166 O4 EQU 2
  00000003            00167 O5 EQU 3
                      00168  
                      00169 ; boolean flags
                      00170 ; bit position 
  00000000            00171 F_DONE EQU 0
  00000002            00172 F_REPT EQU 2 ; repeat flag
                      00173  
                      00174 ;;;;;;;;;;;;;;;;;;;;;;;;
                      00175 ;   assembler macros 
                      00176 ;;;;;;;;;;;;;;;;;;;;;;;;
                      00177 
                      00178 ; and enable ENV pwm
                      00179 env_enable macro
                      00180     banksel ENV
                      00181     clrf (ENV+PWMINTF)
                      00182     movlw 0xC0
                      00183     movwf (ENV+PWMCON)
                      00184     bcf flags,F_DONE
                      00185     endm
                      00186     
                      00187 env_disable macro
                      00188     banksel ENV
                      00189     bcf (ENV+PWMCON),EN
                      00190     endm
                      00191  
                      00192 ;enable TONE pwm
                      00193 tone_enable macro
                      00194     banksel TONE
                      00195     movlw 0xC0
                      00196     movwf (TONE+PWMCON)
                      00197     endm
                      00198     
                      00199 ;disable TONE pwm
                      00200 tone_disable macro
                      00201     banksel TONE
                      00202     bcf (TONE+PWMCON),EN
MPASM 5.76  /HOME/JACQUES/GITHUB/SPIDER_WEB/   12-19-2018  11:45:01         PAGE  5


LOC  OBJECT CODE     LINE SOURCE TEXT
  VALUE

                      00203     endm
                      00204     
                      00205 ;switch based on W register value
                      00206 case macro n, target
                      00207     xorlw n
                      00208     skpnz
                      00209     goto target
                      00210     xorlw n
                      00211     endm
                      00212  
                      00213 ; create an entry in scale table
                      00214 ; 'n' is given pwm period count    
                      00215 PR_CNT macro n
                      00216     dt low n, high n
                      00217     endm
                      00218    
                      00219 ;;;;;;;;;;;;;;;;;;;;;;;;;;;;;;;;;;;;;;;;;;;;;;;;;;;;
                      00220 ;   macros to assist melody table creation 
                      00221 ;;;;;;;;;;;;;;;;;;;;;;;;;;;;;;;;;;;;;;;;;;;;;;;;;;;;;
                      00222 
                      00223 ; insert melody table multiplexer code (begin a table)
                      00224 MELODY macro name
                      00225 idx SET 0
                      00226 name 
                      00227     movlw high (name+7)
                      00228     movwf PCLATH
                      00229     movlw low (name+7)
                      00230     addwf note_idx,W
                      00231     skpnc
                      00232     incf PCLATH
                      00233     movwf PCL
                      00234     endm
                      00235 
                      00236 ; compute duration value from tempo 
                      00237 ; This macro must be the first entry in melody table after MELODY
                      00238 ; Insert 16 bits data in low, high order
                      00239 ; arguments:    
                      00240 ;   'tempo' is  QUARTER/minute
                      00241 TEMPO macro tempo    
                      00242     dt  low (ENV_CLK*60*4/tempo-1), high (ENV_CLK*60*4/tempo-1)
                      00243 idx SET idx+2
                      00244     endm
                      00245     
                      00246 ; insert end of table code (mark end of table)
                      00247 MELODY_END macro
                      00248     retlw STAFF_END
                      00249     endm
                      00250 
                      00251     
                      00252 ; add staff note entry to melody table, one entry by staff note.
                      00253 ; arguments:
                      00254 ;   'name', note name {C2,C2s,D2f,....} 
                      00255 ;   'time', duration {WHOLE, WHOLE_DOT, HALF,...} 
MPASM 5.76  /HOME/JACQUES/GITHUB/SPIDER_WEB/   12-19-2018  11:45:01         PAGE  6


LOC  OBJECT CODE     LINE SOURCE TEXT
  VALUE

                      00256 NOTE macro name, time
                      00257     retlw ((time<<4)|name)
                      00258 idx SET idx+1
                      00259     endm
                      00260 
                      00261 ; add a pause entry
                      00262 ;  arguments:
                      00263 ;       'time', duration 
                      00264 PAUSE macro time
                      00265     retlw ((time<<4)|0xf)
                      00266 idx SET idx+1
                      00267     endm
                      00268     
                      00269 ; set note stroke,  added as required by staff
                      00270 ; s, stroke type {NORMAL,STACCATO,LEGATO} 
                      00271 STROKE macro s
                      00272     retlw STROKE_SWITCH|(s&0x3)
                      00273 idx SET idx+1
                      00274     endm
                      00275     
                      00276 ; switching octave
                      00277 ;  o, {O2, O3}
                      00278 OCTAVE macro o    
                      00279     retlw OCT_SWITCH|(o&3)
                      00280 idx SET idx+1
                      00281     endm
                      00282  
                      00283 ; return repeat start position    
                      00284 REPT_START macro
                      00285     bsf flags, F_REPT
                      00286     retlw (REPT_BAR)
                      00287 idx SET idx+2
                      00288     retlw idx
                      00289 idx SET idx+1    
                      00290     endm
                      00291     
                      00292 ; repeat from mark to here    
                      00293 REPT_LOOP macro
                      00294     retlw REPT_END
                      00295 idx SET idx+1
                      00296     endm
                      00297     
                      00298  
                      00299 ;;;;;;;;;;;;;;;
                      00300 ;  variables
                      00301 ;;;;;;;;;;;;;;;
                      00302 stack_seg    udata 0x20 
0020                  00303 stack res 16 ; arguments stack
                      00304  
                      00305 var_seg  udata_shr 0x70
0070                  00306 flags res 1 ; boolean flags  
0071                  00307 note_idx res 1 ; current position staff
0072                  00308 repeat_mark res 1; index of repeat start section
MPASM 5.76  /HOME/JACQUES/GITHUB/SPIDER_WEB/   12-19-2018  11:45:01         PAGE  7


LOC  OBJECT CODE     LINE SOURCE TEXT
  VALUE

0073                  00309 octave res 1 ; 
0074                  00310 play res 1 ; current position in play_list table
0075                  00311 stroke res 1 ; staff note stroke {NORMAL,STACCATO,LEGATO} 
                      00312 ; 16 bits working storgage
0076                  00313 tempL res 1 ; low byte
0077                  00314 tempH res 1; high byte
                      00315 ; working storage 3
0078                  00316 temp3 res 1  
                      00317 ; 16 bits arithmetic accumulator
0079                  00318 accL res 1 ; low byte
007A                  00319 accH res 1 ; high byte
                      00320 ; note duration counter 16 bits value
                      00321 ; extracted from TEMPO entry in melody table 
007B                  00322 durationL res 1 ; low byte
007C                  00323 durationH res 1 ; high byte
007D                  00324 led_dc_inc res 1 ; 
                      00325  
                      00326 ;;;;;;;;;;;;;;;;
                      00327 ;   code
                      00328 ;;;;;;;;;;;;;;;;        
                      00329         org 0
0000   2???           00330         goto init
                      00331 
                      00332         org 4
0004                  00333 isr
0004                  00334 led_ctrl_isr ;biled interrupt service
0004   003B           00335         banksel BILED
Message[302]: Register in operand not in bank 0.  Ensure that bank bits are correct.
0005   1C2D           00336         btfss (BILED+PWMINTF),PRIF
0006   2???           00337         goto env_isr
Message[302]: Register in operand not in bank 0.  Ensure that bank bits are correct.
0007   102D           00338         bcf (BILED+PWMINTF),PRIF
0008   1F80           00339         btfss led_dc_inc,7
0009   2???           00340         goto positive_slope
000A                  00341 negative_slope  
000A   3002           00342         movlw 2
Message[302]: Register in operand not in bank 0.  Ensure that bank bits are correct.
000B   0223           00343         subwf (BILED+PWMDCL),W
000C   1803           00344         skpnc
000D   2???           00345         goto change_dc
000E   2???           00346         goto invert_slope
000F                  00347 positive_slope
Message[302]: Register in operand not in bank 0.  Ensure that bank bits are correct.
000F   0825           00348         movfw (BILED+PWMPRL)
0010   3EFE           00349         addlw 254
Message[302]: Register in operand not in bank 0.  Ensure that bank bits are correct.
0011   0223           00350         subwf (BILED+PWMDCL),W
0012   1C03           00351         skpc
0013   2???           00352         goto change_dc
0014                  00353 invert_slope ; two's complement
0014   09??           00354         comf led_dc_inc,F
0015   0A??           00355         incf led_dc_inc,F
0016                  00356 change_dc
MPASM 5.76  /HOME/JACQUES/GITHUB/SPIDER_WEB/   12-19-2018  11:45:01         PAGE  8


LOC  OBJECT CODE     LINE SOURCE TEXT
  VALUE

0016   08??           00357         movfw led_dc_inc
Message[302]: Register in operand not in bank 0.  Ensure that bank bits are correct.
0017   07A3           00358         addwf (BILED+PWMDCL),F
Message[302]: Register in operand not in bank 0.  Ensure that bank bits are correct.
0018   17AF           00359         bsf (BILED+PWMLDCON),LDA
0019   0020           00360         banksel BILED_PIR
001A   1293           00361         bcf BILED_PIR,BILED_IF
001B                  00362 env_isr ; envelope interrupt service
001B   1800           00363         btfsc flags,F_DONE
001C   2???           00364         goto isr_exit
001D   003B           00365         banksel ENV
Message[302]: Register in operand not in bank 0.  Ensure that bank bits are correct.
001E   1C3D           00366         btfss (ENV+PWMINTF),PRIF
001F   2???           00367         goto isr_exit
Message[302]: Register in operand not in bank 0.  Ensure that bank bits are correct.
0020   01BD           00368         clrf (ENV+PWMINTF)
0021   1400           00369         bsf flags,F_DONE
0022                  00370 isr_exit        
0022   0020           00371         banksel ENV_PIR
0023   1313           00372         bcf ENV_PIR,ENV_INTF
0024   0009           00373         retfie
                      00374 
                      00375         
                      00376 ; PWM period count
                      00377 ; This 16 bits resolution values
                      00378 ; values computed for 8Mhz PWM_clk      
                      00379 ; REF: https://www.deleze.name/marcel/physique/musique/GammeTemperee.html
0025                  00380 scale
0025   018A           00381         clrf PCLATH
0026   0782           00382         addwf PCL,F
                      00383         ; O2
                      00384         PR_CNT 61161
0027   34E9 34EE          M     dt low 61161, high 61161
                      00385         PR_CNT 57719
0029   3477 34E1          M     dt low 57719, high 57719
                      00386         PR_CNT 54495
002B   34DF 34D4          M     dt low 54495, high 54495
                      00387         PR_CNT 51413
002D   34D5 34C8          M     dt low 51413, high 51413
                      00388         PR_CNT 48543
002F   349F 34BD          M     dt low 48543, high 48543
                      00389         PR_CNT 45818
0031   34FA 34B2          M     dt low 45818, high 45818
                      00390         PR_CNT 43242
0033   34EA 34A8          M     dt low 43242, high 43242
                      00391         PR_CNT 40815
0035   346F 349F          M     dt low 40815, high 40815
                      00392         PR_CNT 38516
0037   3474 3496          M     dt low 38516, high 38516
                      00393         PR_CNT 36363
0039   340B 348E          M     dt low 36363, high 36363
                      00394         PR_CNT 34319
003B   340F 3486          M     dt low 34319, high 34319
MPASM 5.76  /HOME/JACQUES/GITHUB/SPIDER_WEB/   12-19-2018  11:45:01         PAGE  9


LOC  OBJECT CODE     LINE SOURCE TEXT
  VALUE

                      00395         PR_CNT 32401
003D   3491 347E          M     dt low 32401, high 32401
                      00396         ; O3
                      00397         PR_CNT 30580
003F   3474 3477          M     dt low 30580, high 30580
                      00398         PR_CNT 28859
0041   34BB 3470          M     dt low 28859, high 28859
                      00399         PR_CNT 27238
0043   3466 346A          M     dt low 27238, high 27238
                      00400         PR_CNT 25714
0045   3472 3464          M     dt low 25714, high 25714
                      00401         PR_CNT 24271
0047   34CF 345E          M     dt low 24271, high 24271
                      00402         PR_CNT 22909
0049   347D 3459          M     dt low 22909, high 22909
                      00403         PR_CNT 21621
004B   3475 3454          M     dt low 21621, high 21621
                      00404         PR_CNT 20407
004D   34B7 344F          M     dt low 20407, high 20407
                      00405         PR_CNT 19262
004F   343E 344B          M     dt low 19262, high 19262
                      00406         PR_CNT 18181
0051   3405 3447          M     dt low 18181, high 18181
                      00407         PR_CNT 17159
0053   3407 3443          M     dt low 17159, high 17159
                      00408         PR_CNT 16197
0055   3445 343F          M     dt low 16197, high 16197
                      00409         ; O4
                      00410         PR_CNT 15287  
0057   34B7 343B          M     dt low 15287, high 15287
                      00411         PR_CNT 14429  
0059   345D 3438          M     dt low 14429, high 14429
                      00412         PR_CNT 13621  
005B   3435 3435          M     dt low 13621, high 13621
                      00413         PR_CNT 12855  
005D   3437 3432          M     dt low 12855, high 12855
                      00414         PR_CNT 12133  
005F   3465 342F          M     dt low 12133, high 12133
                      00415         PR_CNT 11452  
0061   34BC 342C          M     dt low 11452, high 11452
                      00416         PR_CNT 10810  
0063   343A 342A          M     dt low 10810, high 10810
                      00417         PR_CNT 10203  
0065   34DB 3427          M     dt low 10203, high 10203
                      00418         PR_CNT 9631   
0067   349F 3425          M     dt low 9631, high 9631
                      00419         PR_CNT 9090   
0069   3482 3423          M     dt low 9090, high 9090
                      00420         PR_CNT 8580   
006B   3484 3421          M     dt low 8580, high 8580
                      00421         PR_CNT 8098   
006D   34A2 341F          M     dt low 8098, high 8098
                      00422         ; O5
MPASM 5.76  /HOME/JACQUES/GITHUB/SPIDER_WEB/   12-19-2018  11:45:01         PAGE 10


LOC  OBJECT CODE     LINE SOURCE TEXT
  VALUE

                      00423         PR_CNT 7644   
006F   34DC 341D          M     dt low 7644, high 7644
                      00424         PR_CNT 7215   
0071   342F 341C          M     dt low 7215, high 7215
                      00425         PR_CNT 6809   
0073   3499 341A          M     dt low 6809, high 6809
                      00426         PR_CNT 6427
0075   341B 3419          M     dt low 6427, high 6427
                      00427         PR_CNT 6067
0077   34B3 3417          M     dt low 6067, high 6067
                      00428         PR_CNT 5726
0079   345E 3416          M     dt low 5726, high 5726
                      00429         PR_CNT 5404
007B   341C 3415          M     dt low 5404, high 5404
                      00430         PR_CNT 5101
007D   34ED 3413          M     dt low 5101, high 5101
                      00431         PR_CNT 4815
007F   34CF 3412          M     dt low 4815, high 4815
                      00432         PR_CNT 4544
0081   34C0 3411          M     dt low 4544, high 4544
                      00433         PR_CNT 4289
0083   34C1 3410          M     dt low 4289, high 4289
                      00434         PR_CNT 4049
0085   34D1 340F          M     dt low 4049, high 4049
                      00435 
                      00436 ; melodies play list
0087                  00437 play_list
0087   018A           00438         clrf PCLATH
0088   0782           00439         addwf PCL,F
0089   2???           00440         goto greensleeves
008A   2???           00441         goto korobeiniki
008B   2???           00442         goto claire_fontaine
008C   2???           00443         goto ode_joy
008D   2???           00444         goto jingle_bell
008E   2???           00445         goto douce_nuit
008F   2???           00446         goto beau_sapin
0090   2???           00447         goto l_hiver
0091   2???           00448         goto melodia
0092   2???           00449         goto go_down_moses
0093   2???           00450         goto amazing_grace
0094   2???           00451         goto frere_jacques
0095   2???           00452         goto bon_tabac
0096   2???           00453         goto roi_dagobert
0097   2???           00454         goto morning_has_broken
0098   2???           00455         goto a_bytown
0099   2???           00456         goto joyeux_anniv
009A   2???           00457         goto o_canada
009B   2???           00458         goto god_save_the_queen
009C   2???           00459         goto deutschlandlied
009D   2???           00460         goto fur_elise
009E   2???           00461         goto reset_list
                      00462 
                      00463 ; PWM3 and CWG are used to
MPASM 5.76  /HOME/JACQUES/GITHUB/SPIDER_WEB/   12-19-2018  11:45:01         PAGE 11


LOC  OBJECT CODE     LINE SOURCE TEXT
  VALUE

                      00464 ; control RED/GREEN LEDs
                      00465 ; PWM -> 200Hz period
                      00466 ; use interrupt on PRIF to 
                      00467 ; modify DC
                      00468 ; LED pulses in complementary   
009F                  00469 config_led_control
009F   3001           00470         movlw 1
00A0   00??           00471         movwf led_dc_inc
                      00472         ; map CWGA -> RA5 and CWGB on RA2
00A1   0022           00473         banksel APFCON
00A2   3060           00474         movlw (1<<CWGASEL)|(1<<CWGBSEL)
Message[302]: Register in operand not in bank 0.  Ensure that bank bits are correct.
00A3   009D           00475         movwf APFCON
                      00476         ; configure BILED
00A4   003B           00477         banksel BILED
Message[302]: Register in operand not in bank 0.  Ensure that bank bits are correct.
00A5   01A1           00478         clrf (BILED+PWMPHL)
Message[302]: Register in operand not in bank 0.  Ensure that bank bits are correct.
00A6   01A2           00479         clrf (BILED+PWMPHH)
Message[302]: Register in operand not in bank 0.  Ensure that bank bits are correct.
00A7   01A7           00480         clrf (BILED+PWMOFL)
Message[302]: Register in operand not in bank 0.  Ensure that bank bits are correct.
00A8   01A8           00481         clrf (BILED+PWMOFH)
Message[302]: Register in operand not in bank 0.  Ensure that bank bits are correct.
00A9   14AE           00482         bsf (BILED+PWMCLKCON),1 ; use LFINTOSC as source clock
00AA   3078           00483         movlw 120
Message[302]: Register in operand not in bank 0.  Ensure that bank bits are correct.
00AB   00A5           00484         movwf (BILED+PWMPRL)
Message[302]: Register in operand not in bank 0.  Ensure that bank bits are correct.
00AC   01A6           00485         clrf (BILED+PWMPRH)
00AD   304D           00486         movlw 77
Message[302]: Register in operand not in bank 0.  Ensure that bank bits are correct.
00AE   00A3           00487         movwf (BILED+PWMDCL)
Message[302]: Register in operand not in bank 0.  Ensure that bank bits are correct.
00AF   01A4           00488         clrf (BILED+PWMDCH)
Message[302]: Register in operand not in bank 0.  Ensure that bank bits are correct.
00B0   17AF           00489         bsf (BILED+PWMLDCON),LDA
                      00490         ; set interrupt on PR to modify DC
Message[302]: Register in operand not in bank 0.  Ensure that bank bits are correct.
00B1   102D           00491         bcf (BILED+PWMINTF),PRIF
Message[302]: Register in operand not in bank 0.  Ensure that bank bits are correct.
00B2   142C           00492         bsf (BILED+PWMINTE),PRIE
Message[302]: Register in operand not in bank 0.  Ensure that bank bits are correct.
00B3   17AB           00493         bsf (BILED+PWMCON),EN
Message[302]: Register in operand not in bank 0.  Ensure that bank bits are correct.
00B4   172B           00494         bsf (BILED+PWMCON),OE
                      00495         ; configure CWG
00B5   002D           00496         banksel CWG1DBR
Message[302]: Register in operand not in bank 0.  Ensure that bank bits are correct.
00B6   1414           00497         bsf CWG1CON1,0; source is BILED
Message[302]: Register in operand not in bank 0.  Ensure that bank bits are correct.
00B7   1494           00498         bsf CWG1CON1,1
Message[302]: Register in operand not in bank 0.  Ensure that bank bits are correct.
MPASM 5.76  /HOME/JACQUES/GITHUB/SPIDER_WEB/   12-19-2018  11:45:01         PAGE 12


LOC  OBJECT CODE     LINE SOURCE TEXT
  VALUE

00B8   0191           00499         clrf CWG1DBR
Message[302]: Register in operand not in bank 0.  Ensure that bank bits are correct.
00B9   0192           00500         clrf CWG1DBF
00BA   30E0           00501         movlw (1<<G1EN)|(1<<G1OEA)|(1<<G1OEB)
Message[302]: Register in operand not in bank 0.  Ensure that bank bits are correct.
00BB   0093           00502         movwf CWG1CON0
                      00503         ; enable interrupt in BILED_PIE
00BC   0021           00504         banksel BILED_PIE
Message[302]: Register in operand not in bank 0.  Ensure that bank bits are correct.
00BD   1693           00505         bsf BILED_PIE,BILED_IE
00BE   0008           00506         return
                      00507         
00BF                  00508 init
00BF   0021           00509         banksel OSCCON
00C0   3070           00510         movlw (0xE<<IRCF0)
Message[302]: Register in operand not in bank 0.  Ensure that bank bits are correct.
00C1   0099           00511         movwf OSCCON
00C2   0023           00512         banksel ANSELA
Message[302]: Register in operand not in bank 0.  Ensure that bank bits are correct.
00C3   018C           00513         clrf ANSELA
                      00514         ; limit slew rate
00C4   0026           00515         banksel SLRCONA
00C5   30FF           00516         movlw 0xff
Message[302]: Register in operand not in bank 0.  Ensure that bank bits are correct.
00C6   008C           00517         movwf SLRCONA
                      00518         ; ensure ENV_RA==0 and TONE_RA=0
00C7   0022           00519         banksel LATA
Message[302]: Register in operand not in bank 0.  Ensure that bank bits are correct.
00C8   110C           00520         bcf LATA,ENV_RA
Message[302]: Register in operand not in bank 0.  Ensure that bank bits are correct.
00C9   100C           00521         bcf LATA,TONE_RA
                      00522         ; output pins: RA0,RA1,R2,RA2,RA5
00CA   0021           00523         banksel TRISA
Message[302]: Register in operand not in bank 0.  Ensure that bank bits are correct.
00CB   018C           00524         clrf TRISA
                      00525         ; power LED ON
00CC   0022           00526         banksel LATA
Message[302]: Register in operand not in bank 0.  Ensure that bank bits are correct.
00CD   108C           00527         bcf LATA, RA1
                      00528         ; bicolor led show
00CE   2???           00529         call config_led_control
                      00530         ; clear TONE PH, DC, PR, OF
00CF   003B           00531         banksel TONE
00D0   300D           00532         movlw high TONE
00D1   0087           00533         movwf FSR1H
00D2   3091           00534         movlw low TONE
00D3   0086           00535         movwf FSR1L
00D4   3008           00536         movlw 8
00D5   0181           00537         clrf INDF1
Message[305]: Using default destination of 1 (file).
00D6   0A86           00538         incf FSR1L
00D7   3EFF           00539         addlw 255
00D8   1D03           00540         skpz
MPASM 5.76  /HOME/JACQUES/GITHUB/SPIDER_WEB/   12-19-2018  11:45:01         PAGE 13


LOC  OBJECT CODE     LINE SOURCE TEXT
  VALUE

00D9   2???           00541         goto $-4
Message[302]: Register in operand not in bank 0.  Ensure that bank bits are correct.
00DA   179F           00542         bsf (TONE+PWMLDCON),LDA
                      00543         ; clear ENV PH, DC, PR, OF
00DB   300D           00544         movlw high ENV
00DC   0087           00545         movwf FSR1H
00DD   30B1           00546         movlw low ENV
00DE   0086           00547         movwf FSR1L
00DF   3008           00548         movlw 8
00E0   0181           00549         clrf INDF1
Message[305]: Using default destination of 1 (file).
00E1   0A86           00550         incf FSR1L
00E2   3EFF           00551         addlw 255
00E3   1D03           00552         skpz
00E4   2???           00553         goto $-4
Message[302]: Register in operand not in bank 0.  Ensure that bank bits are correct.
00E5   17BF           00554         bsf (ENV+PWMLDCON),LDA
                      00555         ; configure TONE pwm
00E6   3020           00556         movlw 2<<PWMPS
Message[302]: Register in operand not in bank 0.  Ensure that bank bits are correct.
00E7   009E           00557         movwf (TONE+PWMCLKCON)
00E8   30C0           00558         movlw 0xC0
Message[302]: Register in operand not in bank 0.  Ensure that bank bits are correct.
00E9   009B           00559         movwf (TONE+PWMCON)
                      00560         ; configure ENV pwm
Message[302]: Register in operand not in bank 0.  Ensure that bank bits are correct.
00EA   00BB           00561         movwf (ENV+PWMCON)
00EB   3012           00562         movlw (2<<PWMCS)|(1<<PWMPS)
Message[302]: Register in operand not in bank 0.  Ensure that bank bits are correct.
00EC   00BE           00563         movwf (ENV+PWMCLKCON)
                      00564         ; enable_interrupt for ENV DC and PR
Message[302]: Register in operand not in bank 0.  Ensure that bank bits are correct.
00ED   01BD           00565         clrf (ENV+PWMINTF)
Message[302]: Register in operand not in bank 0.  Ensure that bank bits are correct.
00EE   143C           00566         bsf (ENV+PWMINTE),PRIE
00EF   0021           00567         banksel ENV_PIE
Message[302]: Register in operand not in bank 0.  Ensure that bank bits are correct.
00F0   1713           00568         bsf ENV_PIE,ENV_INTE
00F1   0020           00569         banksel INTCON
00F2   30C0           00570         movlw (1<<GIE)|(1<<PEIE)
00F3   008B           00571         movwf INTCON
00F4   1D83           00572         btfss STATUS,NOT_PD
00F5   2???           00573         goto main
00F6                  00574 reset_list
00F6   01??           00575         clrf play
00F7                  00576 main
00F7   01??           00577         clrf note_idx
00F8   01??           00578         clrf stroke
00F9   01??           00579         clrf flags
00FA   08??           00580         movfw play
00FB   2???           00581         call play_list
00FC   00??           00582         movwf durationL
00FD   0A??           00583         incf note_idx,F
MPASM 5.76  /HOME/JACQUES/GITHUB/SPIDER_WEB/   12-19-2018  11:45:01         PAGE 14


LOC  OBJECT CODE     LINE SOURCE TEXT
  VALUE

00FE   08??           00584         movfw play
00FF   2???           00585         call play_list
0100   00??           00586         movwf durationH
0101   08??           00587         movfw durationL
0102   00??           00588         movwf tempL
0103   08??           00589         movfw durationH
0104   00??           00590         movwf tempH
0105   3008           00591         movlw 8
0106   00??           00592         movwf temp3
0107                  00593 div256
0107   08??           00594         movfw temp3
0108   1903           00595         skpnz
0109   2???           00596         goto set_biled_per
010A   1003           00597         clrc
010B   0C??           00598         rrf tempH,F
010C   0C??           00599         rrf tempL,F
010D   03??           00600         decf temp3,F
010E   2???           00601         goto div256
010F                  00602 set_biled_per
010F   003B           00603         banksel BILED
0110   08??           00604         movfw tempL
Message[302]: Register in operand not in bank 0.  Ensure that bank bits are correct.
0111   00A5           00605         movwf (BILED+PWMPRL)
Message[302]: Register in operand not in bank 0.  Ensure that bank bits are correct.
0112   17AF           00606         bsf (BILED+PWMLDCON),LDA
0113                  00607 staff_loop
Message[305]: Using default destination of 1 (file).
0113   0A??           00608         incf note_idx
0114   08??           00609         movfw play
0115   2???           00610         call play_list
0116   00??           00611         movwf tempL
0117   3AFF           00612         xorlw STAFF_END
0118   1903           00613         skpnz
0119   2???           00614         goto melody_done
011A   08??           00615         movfw tempL
011B   39F0           00616         andlw 0xF0
                      00617         case OCT_SWITCH, cmd_octave
011C   3AF0               M     xorlw OCT_SWITCH
011D   1903               M     skpnz
011E   2???               M     goto cmd_octave
011F   3AF0               M     xorlw OCT_SWITCH
                      00618         case STROKE_SWITCH, cmd_stroke
0120   3AE0               M     xorlw STROKE_SWITCH
0121   1903               M     skpnz
0122   2???               M     goto cmd_stroke
0123   3AE0               M     xorlw STROKE_SWITCH
                      00619         case REPT_BAR, cmd_repeat_bar
0124   3AC0               M     xorlw REPT_BAR
0125   1903               M     skpnz
0126   2???               M     goto cmd_repeat_bar
0127   3AC0               M     xorlw REPT_BAR
                      00620         case REPT_END, cmd_repeat_loop
0128   3AD0               M     xorlw REPT_END
MPASM 5.76  /HOME/JACQUES/GITHUB/SPIDER_WEB/   12-19-2018  11:45:01         PAGE 15


LOC  OBJECT CODE     LINE SOURCE TEXT
  VALUE

0129   1903               M     skpnz
012A   2???               M     goto cmd_repeat_loop
012B   3AD0               M     xorlw REPT_END
012C   300F           00621         movlw 0xF
012D   05??           00622         andwf tempL,W
012E   3A0F           00623         xorlw 0xF
012F   1D03           00624         skpz
0130   2???           00625         goto tone
0131   0E??           00626         swapf tempL,W
0132   390F           00627         andlw 0xF
0133   2???           00628         call pause
0134   2???           00629         goto staff_loop
0135                  00630 tone
0135   08??           00631         movfw tempL
0136   2???           00632         call play_note
0137   2???           00633         goto staff_loop
0138                  00634 cmd_octave
0138   3003           00635         movlw 3
0139   05??           00636         andwf tempL,W
013A   00??           00637         movwf octave
013B   2???           00638         goto staff_loop
013C                  00639 cmd_stroke
013C   3003           00640         movlw 3
013D   05??           00641         andwf tempL,W
013E   00??           00642         movwf stroke
013F   2???           00643         goto staff_loop
0140                  00644 cmd_repeat_bar
0140   0A??           00645         incf note_idx,F
0141   0A??           00646         incf note_idx,F
0142   08??           00647         movfw play
0143   2???           00648         call play_list
0144   00??           00649         movwf repeat_mark
0145   2???           00650         goto staff_loop
0146                  00651 cmd_repeat_loop
0146   1D00           00652         btfss flags, F_REPT
0147   2???           00653         goto staff_loop
0148   08??           00654         movfw repeat_mark
0149   00??           00655         movwf note_idx
014A   1100           00656         bcf flags, F_REPT
014B   2???           00657         goto staff_loop
014C                  00658 melody_done
014C   0A??           00659         incf play,F
014D   2???           00660         call low_power
014E   0063           00661         sleep
014F   2???           00662         goto init
                      00663 
                      00664 ; configure µC for lowest current draw
                      00665 ; during sleep  
0150                  00666 low_power
0150   0020           00667         banksel INTCON
0151   138B           00668         bcf INTCON, GIE
0152   003B           00669         banksel BILED
Message[302]: Register in operand not in bank 0.  Ensure that bank bits are correct.
MPASM 5.76  /HOME/JACQUES/GITHUB/SPIDER_WEB/   12-19-2018  11:45:01         PAGE 16


LOC  OBJECT CODE     LINE SOURCE TEXT
  VALUE

0153   13AB           00670         bcf (BILED+PWMCON),EN
Message[302]: Register in operand not in bank 0.  Ensure that bank bits are correct.
0154   132B           00671         bcf (BILED+PWMCON),OE
Message[302]: Register in operand not in bank 0.  Ensure that bank bits are correct.
0155   102C           00672         bcf (BILED+PWMINTE),PRIF
Message[302]: Register in operand not in bank 0.  Ensure that bank bits are correct.
0156   102D           00673         bcf (BILED+PWMINTF),PRIF
0157   002D           00674         banksel CWG1CON0
Message[302]: Register in operand not in bank 0.  Ensure that bank bits are correct.
0158   1293           00675         bcf CWG1CON0,G1OEA
Message[302]: Register in operand not in bank 0.  Ensure that bank bits are correct.
0159   1313           00676         bcf CWG1CON0,G1OEB
015A   0022           00677         banksel LATA
Message[302]: Register in operand not in bank 0.  Ensure that bank bits are correct.
015B   128C           00678         bcf LATA,BILEDA_RA
Message[302]: Register in operand not in bank 0.  Ensure that bank bits are correct.
015C   120C           00679         bcf LATA,BILEDB_RA
Message[302]: Register in operand not in bank 0.  Ensure that bank bits are correct.
015D   140C           00680         bsf LATA,HBEAT_LED
015E   0008           00681         return
                      00682 
                      00683 ; disable any tone
                      00684 ; wait duration 
                      00685 ; arguemnents:
                      00686 ;   W  duration value extracted from melody table
                      00687 ;       value in low nibble     
015F                  00688 pause
015F   2???           00689         call set_envelope
                      00690         env_enable
0160   003B               M     banksel ENV
Message[302]: Register in operand not in bank 0.  Ensure that bank bits are correct.
0161   01BD               M     clrf (ENV+PWMINTF)
0162   30C0               M     movlw 0xC0
Message[302]: Register in operand not in bank 0.  Ensure that bank bits are correct.
0163   00BB               M     movwf (ENV+PWMCON)
0164   1000               M     bcf flags,F_DONE
0165   1C00           00691         btfss flags, F_DONE
0166   2???           00692         goto $-1
                      00693         env_disable
0167   003B               M     banksel ENV
Message[302]: Register in operand not in bank 0.  Ensure that bank bits are correct.
0168   13BB               M     bcf (ENV+PWMCON),EN
0169   0008           00694         return
                      00695         
                      00696 ; play staff note
                      00697 ; arguments:
                      00698 ;   W  note data extracted from melody table
                      00699 ;       low nibble note_idx
                      00700 ;       high nibble duration
016A                  00701 play_note
016A   00??           00702         movwf temp3
016B   390F           00703         andlw 0xF
016C   2???           00704         call set_tone_freq
MPASM 5.76  /HOME/JACQUES/GITHUB/SPIDER_WEB/   12-19-2018  11:45:01         PAGE 17


LOC  OBJECT CODE     LINE SOURCE TEXT
  VALUE

016D   0E??           00705         swapf temp3,W
016E   390F           00706         andlw 0xF
016F   2???           00707         call set_envelope
                      00708         tone_enable
0170   003B               M     banksel TONE
0171   30C0               M     movlw 0xC0
Message[302]: Register in operand not in bank 0.  Ensure that bank bits are correct.
0172   009B               M     movwf (TONE+PWMCON)
                      00709         env_enable
0173   003B               M     banksel ENV
Message[302]: Register in operand not in bank 0.  Ensure that bank bits are correct.
0174   01BD               M     clrf (ENV+PWMINTF)
0175   30C0               M     movlw 0xC0
Message[302]: Register in operand not in bank 0.  Ensure that bank bits are correct.
0176   00BB               M     movwf (ENV+PWMCON)
0177   1000               M     bcf flags,F_DONE
0178   1C00           00710         btfss flags, F_DONE
0179   2???           00711         goto $-1
                      00712         tone_disable
017A   003B               M     banksel TONE
Message[302]: Register in operand not in bank 0.  Ensure that bank bits are correct.
017B   139B               M     bcf (TONE+PWMCON),EN
                      00713         env_disable
017C   003B               M     banksel ENV
Message[302]: Register in operand not in bank 0.  Ensure that bank bits are correct.
017D   13BB               M     bcf (ENV+PWMCON),EN
017E   0008           00714         return
                      00715         
                      00716 ; set tone duration
                      00717 ; argument W duration value {WHOLE,DOTTED_WHOLE,...}    
017F                  00718 set_envelope 
017F   00??           00719         movwf tempL
0180   003B           00720         banksel ENV
                      00721         ; duration variable contain value for WHOLE
0181   08??           00722         movfw durationL
0182   00??           00723         movwf accL
0183   08??           00724         movfw durationH
0184   00??           00725         movwf accH
0185   1003           00726         clrc
0186   0C??           00727         rrf tempL,W
0187   00??           00728         movwf tempH
                      00729 ; repeat devision by 2 until tempH==0
0188                  00730 div2_loop       
0188   08??           00731         movfw tempH
0189   1903           00732         skpnz
018A   2???           00733         goto div_done
018B   1003           00734         clrc
018C   0C??           00735         rrf accH,F
018D   0C??           00736         rrf accL,F
018E   03??           00737         decf tempH,F
018F   2???           00738         goto div2_loop
0190                  00739 div_done
                      00740 ; if it is dotted increase duration by 50%
MPASM 5.76  /HOME/JACQUES/GITHUB/SPIDER_WEB/   12-19-2018  11:45:01         PAGE 18


LOC  OBJECT CODE     LINE SOURCE TEXT
  VALUE

0190   1C00           00741         btfss tempL,0
0191   2???           00742         goto set_duration
0192   1003           00743         clrc
0193   0C??           00744         rrf accH,W
0194   00??           00745         movwf tempH
0195   0C??           00746         rrf accL,W
0196   07??           00747         addwf accL,F
0197   1803           00748         skpnc
0198   0A??           00749         incf tempH,F
0199   08??           00750         movfw tempH
019A   07??           00751         addwf accH,F
019B                  00752 set_duration    
019B   08??           00753         movfw accL
Message[302]: Register in operand not in bank 0.  Ensure that bank bits are correct.
019C   00B5           00754         movwf (ENV+PWMPRL)
019D   08??           00755         movfw accH
Message[302]: Register in operand not in bank 0.  Ensure that bank bits are correct.
019E   00B6           00756         movwf (ENV+PWMPRH)
019F   3002           00757         movlw LEGATO
01A0   06??           00758         xorwf stroke,W
01A1   1903           00759         skpnz
01A2   2???           00760         goto legato_mode
01A3   3001           00761         movlw STACCATO
01A4   06??           00762         xorwf stroke,W
01A5   1903           00763         skpnz
01A6   2???           00764         goto staccato_mode
01A7                  00765 normal_mode ; 3/4 duration
01A7   1003           00766         clrc
01A8   0C??           00767         rrf accH,F
01A9   0C??           00768         rrf accL,F
01AA   1003           00769         clrc
01AB   0C??           00770         rrf accH,F
01AC   0C??           00771         rrf accL,W
Message[302]: Register in operand not in bank 0.  Ensure that bank bits are correct.
01AD   0235           00772         subwf (ENV+PWMPRL),W
01AE   00??           00773         movwf accL
01AF   1C03           00774         skpc
01B0   0A??           00775         incf accH,F
01B1   08??           00776         movfw accH
Message[302]: Register in operand not in bank 0.  Ensure that bank bits are correct.
01B2   0236           00777         subwf (ENV+PWMPRH),W
01B3   00??           00778         movwf accH
01B4   2???           00779         goto update_dc
01B5                  00780 staccato_mode ; 1/2 duration
01B5   1003           00781         clrc
01B6   0C??           00782         rrf accH,F
01B7   0C??           00783         rrf accL,F 
01B8   2???           00784         goto update_dc
01B9                  00785 legato_mode ; 7/8 duration
01B9   3003           00786         movlw 3
01BA   00??           00787         movwf tempL
01BB                  00788 div8
01BB   08??           00789         movfw tempL
MPASM 5.76  /HOME/JACQUES/GITHUB/SPIDER_WEB/   12-19-2018  11:45:01         PAGE 19


LOC  OBJECT CODE     LINE SOURCE TEXT
  VALUE

01BC   1903           00790         skpnz
01BD   2???           00791         goto div8_done
01BE   1003           00792         clrc
01BF   0C??           00793         rrf accH,F
01C0   0C??           00794         rrf accL,F
01C1   03??           00795         decf tempL,F
01C2   2???           00796         goto div8
01C3                  00797 div8_done       
01C3   08??           00798         movfw accL
Message[302]: Register in operand not in bank 0.  Ensure that bank bits are correct.
01C4   0235           00799         subwf (ENV+PWMPRL),W
01C5   00??           00800         movwf accL
01C6   1C03           00801         skpc
01C7   0A??           00802         incf accH,F
01C8   08??           00803         movfw accH
Message[302]: Register in operand not in bank 0.  Ensure that bank bits are correct.
01C9   0236           00804         subwf (ENV+PWMPRH),W
01CA   00??           00805         movwf accH
01CB                  00806 update_dc
01CB   08??           00807         movfw accL
Message[302]: Register in operand not in bank 0.  Ensure that bank bits are correct.
01CC   00B3           00808         movwf (ENV+PWMDCL)
01CD   08??           00809         movfw accH
Message[302]: Register in operand not in bank 0.  Ensure that bank bits are correct.
01CE   00B4           00810         movwf (ENV+PWMDCH)
01CF                  00811 update_env
Message[302]: Register in operand not in bank 0.  Ensure that bank bits are correct.
01CF   17BF           00812         bsf (ENV+PWMLDCON), LDA
01D0   0008           00813         return
                      00814         
                      00815 ;configure PWM channel to generate tone 50% duty cycle
                      00816 ; argument W tone index for 'scale' table
01D1                  00817 set_tone_freq
01D1   00??           00818         movwf tempL
                      00819         ; adjust note_idx for octave
01D2   08??           00820         movfw octave
01D3   1903           00821         skpnz
01D4   2???           00822         goto oct_adj_done
01D5   00??           00823         movwf tempH
01D6   300C           00824         movlw 12
01D7                  00825 oct_adj_loop    
01D7   07??           00826         addwf tempL,F
01D8   0B??           00827         decfsz tempH,F
01D9   2???           00828         goto oct_adj_loop
01DA                  00829 oct_adj_done    
01DA   003B           00830         banksel TONE
                      00831         ; set pwm period
01DB   1003           00832         clrc
01DC   0D??           00833         rlf tempL,F
01DD   08??           00834         movfw tempL
01DE   2???           00835         call scale
Message[302]: Register in operand not in bank 0.  Ensure that bank bits are correct.
01DF   0095           00836         movwf (TONE+PWMPRL)
MPASM 5.76  /HOME/JACQUES/GITHUB/SPIDER_WEB/   12-19-2018  11:45:01         PAGE 20


LOC  OBJECT CODE     LINE SOURCE TEXT
  VALUE

01E0   0A??           00837         incf tempL,W
01E1   2???           00838         call scale
Message[302]: Register in operand not in bank 0.  Ensure that bank bits are correct.
01E2   0096           00839         movwf (TONE+PWMPRH)
                      00840         ; set duty cycle
01E3   1003           00841         clrc
Message[302]: Register in operand not in bank 0.  Ensure that bank bits are correct.
01E4   0C16           00842         rrf (TONE+PWMPRH),W
Message[302]: Register in operand not in bank 0.  Ensure that bank bits are correct.
01E5   0094           00843         movwf (TONE+PWMDCH)
Message[302]: Register in operand not in bank 0.  Ensure that bank bits are correct.
01E6   0C15           00844         rrf (TONE+PWMPRL),W
Message[302]: Register in operand not in bank 0.  Ensure that bank bits are correct.
01E7   0093           00845         movwf (TONE+PWMDCL)
Message[302]: Register in operand not in bank 0.  Ensure that bank bits are correct.
01E8   179F           00846         bsf (TONE+PWMLDCON),LDA
01E9   0008           00847         return
                      00848 
                      00849         
                      00850 ;;;;;;;;;;;;;;;;;;;;;;;;;;;;;;;;;;;;;;
                      00851 ;   melodies tables to end of memory    
                      00852 ;;;;;;;;;;;;;;;;;;;;;;;;;;;;;;;;;;;;;;;
                      00853 ;  l'hiver
                      00854 ;REF: https://www.partitionsdechansons.com/pdf/14429/Traditionnel-L-hiver.html  
                      00855             MELODY l_hiver
  00000000                M idx SET 0
01EA                      M l_hiver 
01EA   30??               M     movlw high (l_hiver+7)
01EB   008A               M     movwf PCLATH
01EC   30??               M     movlw low (l_hiver+7)
01ED   07??               M     addwf note_idx,W
01EE   1803               M     skpnc
Message[305]: Using default destination of 1 (file).
01EF   0A8A               M     incf PCLATH
01F0   0082               M     movwf PCL
                      00856             TEMPO 60
01F1   342F 34F2          M     dt  low (ENV_CLK*60*4/60-1),    high (ENV_CLK*60*4/60-1)
  00000002                M idx SET idx+2
                      00857             OCTAVE O3
01F3   34F1               M     retlw OCT_SWITCH|(O3&3)
  00000003                M idx SET idx+1
                      00858             STROKE NORMAL
01F4   34E0               M     retlw STROKE_SWITCH|(NORMAL&0x3)
  00000004                M idx SET idx+1
                      00859             ;1
                      00860             NOTE DO2, HEIGTH
01F5   3460               M     retlw ((HEIGTH<<4)|DO2)
  00000005                M idx SET idx+1
                      00861             NOTE DO2, HEIGTH
01F6   3460               M     retlw ((HEIGTH<<4)|DO2)
  00000006                M idx SET idx+1
                      00862             NOTE SOL2, HEIGTH
01F7   3467               M     retlw ((HEIGTH<<4)|SOL2)
MPASM 5.76  /HOME/JACQUES/GITHUB/SPIDER_WEB/   12-19-2018  11:45:01         PAGE 21


LOC  OBJECT CODE     LINE SOURCE TEXT
  VALUE

  00000007                M idx SET idx+1
                      00863             NOTE SOL2, HEIGTH
01F8   3467               M     retlw ((HEIGTH<<4)|SOL2)
  00000008                M idx SET idx+1
                      00864             NOTE LA2, HEIGTH
01F9   3469               M     retlw ((HEIGTH<<4)|LA2)
  00000009                M idx SET idx+1
                      00865             NOTE LA2, HEIGTH
01FA   3469               M     retlw ((HEIGTH<<4)|LA2)
  0000000A                M idx SET idx+1
                      00866             NOTE SOL2, HEIGTH
01FB   3467               M     retlw ((HEIGTH<<4)|SOL2)
  0000000B                M idx SET idx+1
                      00867             OCTAVE O2
01FC   34F0               M     retlw OCT_SWITCH|(O2&3)
  0000000C                M idx SET idx+1
                      00868             NOTE SI2, SIXTEENTH
01FD   348B               M     retlw ((SIXTEENTH<<4)|SI2)
  0000000D                M idx SET idx+1
                      00869             OCTAVE O3
01FE   34F1               M     retlw OCT_SWITCH|(O3&3)
  0000000E                M idx SET idx+1
                      00870             NOTE DO2, SIXTEENTH
01FF   3480               M     retlw ((SIXTEENTH<<4)|DO2)
  0000000F                M idx SET idx+1
                      00871             ;2
                      00872             NOTE RE2, HEIGTH
0200   3462               M     retlw ((HEIGTH<<4)|RE2)
  00000010                M idx SET idx+1
                      00873             NOTE RE2, HEIGTH
0201   3462               M     retlw ((HEIGTH<<4)|RE2)
  00000011                M idx SET idx+1
                      00874             NOTE DO2, HEIGTH
0202   3460               M     retlw ((HEIGTH<<4)|DO2)
  00000012                M idx SET idx+1
                      00875             OCTAVE O2
0203   34F0               M     retlw OCT_SWITCH|(O2&3)
  00000013                M idx SET idx+1
                      00876             NOTE SI2, HEIGTH
0204   346B               M     retlw ((HEIGTH<<4)|SI2)
  00000014                M idx SET idx+1
                      00877             OCTAVE O3
0205   34F1               M     retlw OCT_SWITCH|(O3&3)
  00000015                M idx SET idx+1
                      00878             NOTE DO2, HALF
0206   3420               M     retlw ((HALF<<4)|DO2)
  00000016                M idx SET idx+1
                      00879             ;3
                      00880             NOTE DO2, HEIGTH
0207   3460               M     retlw ((HEIGTH<<4)|DO2)
  00000017                M idx SET idx+1
                      00881             NOTE DO2, HEIGTH
0208   3460               M     retlw ((HEIGTH<<4)|DO2)
MPASM 5.76  /HOME/JACQUES/GITHUB/SPIDER_WEB/   12-19-2018  11:45:01         PAGE 22


LOC  OBJECT CODE     LINE SOURCE TEXT
  VALUE

  00000018                M idx SET idx+1
                      00882             NOTE SOL2,HEIGTH
0209   3467               M     retlw ((HEIGTH<<4)|SOL2)
  00000019                M idx SET idx+1
                      00883             NOTE SOL2, HEIGTH
020A   3467               M     retlw ((HEIGTH<<4)|SOL2)
  0000001A                M idx SET idx+1
                      00884             NOTE LA2, HEIGTH
020B   3469               M     retlw ((HEIGTH<<4)|LA2)
  0000001B                M idx SET idx+1
                      00885             NOTE LA2, HEIGTH
020C   3469               M     retlw ((HEIGTH<<4)|LA2)
  0000001C                M idx SET idx+1
                      00886             NOTE SOL2, HEIGTH
020D   3467               M     retlw ((HEIGTH<<4)|SOL2)
  0000001D                M idx SET idx+1
                      00887             OCTAVE O2
020E   34F0               M     retlw OCT_SWITCH|(O2&3)
  0000001E                M idx SET idx+1
                      00888             NOTE SI2, SIXTEENTH
020F   348B               M     retlw ((SIXTEENTH<<4)|SI2)
  0000001F                M idx SET idx+1
                      00889             OCTAVE O3
0210   34F1               M     retlw OCT_SWITCH|(O3&3)
  00000020                M idx SET idx+1
                      00890             NOTE DO2, SIXTEENTH
0211   3480               M     retlw ((SIXTEENTH<<4)|DO2)
  00000021                M idx SET idx+1
                      00891             ;4
                      00892             NOTE RE2, HEIGTH
0212   3462               M     retlw ((HEIGTH<<4)|RE2)
  00000022                M idx SET idx+1
                      00893             NOTE RE2, HEIGTH
0213   3462               M     retlw ((HEIGTH<<4)|RE2)
  00000023                M idx SET idx+1
                      00894             NOTE DO2, HEIGTH
0214   3460               M     retlw ((HEIGTH<<4)|DO2)
  00000024                M idx SET idx+1
                      00895             OCTAVE O2
0215   34F0               M     retlw OCT_SWITCH|(O2&3)
  00000025                M idx SET idx+1
                      00896             NOTE SI2, HEIGTH
0216   346B               M     retlw ((HEIGTH<<4)|SI2)
  00000026                M idx SET idx+1
                      00897             OCTAVE O3
0217   34F1               M     retlw OCT_SWITCH|(O3&3)
  00000027                M idx SET idx+1
                      00898             NOTE DO2, HALF
0218   3420               M     retlw ((HALF<<4)|DO2)
  00000028                M idx SET idx+1
                      00899             ;5
                      00900             REPT_START
0219   1500               M     bsf flags, F_REPT
MPASM 5.76  /HOME/JACQUES/GITHUB/SPIDER_WEB/   12-19-2018  11:45:01         PAGE 23


LOC  OBJECT CODE     LINE SOURCE TEXT
  VALUE

021A   34C0               M     retlw (REPT_BAR)
  0000002A                M idx SET idx+2
021B   342A               M     retlw idx
  0000002B                M idx SET idx+1    
                      00901             NOTE RE2, HEIGTH
021C   3462               M     retlw ((HEIGTH<<4)|RE2)
  0000002C                M idx SET idx+1
                      00902             NOTE RE2, HEIGTH
021D   3462               M     retlw ((HEIGTH<<4)|RE2)
  0000002D                M idx SET idx+1
                      00903             NOTE RE2, HEIGTH
021E   3462               M     retlw ((HEIGTH<<4)|RE2)
  0000002E                M idx SET idx+1
                      00904             NOTE RE2, HEIGTH
021F   3462               M     retlw ((HEIGTH<<4)|RE2)
  0000002F                M idx SET idx+1
                      00905             NOTE RE2, HEIGTH
0220   3462               M     retlw ((HEIGTH<<4)|RE2)
  00000030                M idx SET idx+1
                      00906             NOTE MI2, HEIGTH
0221   3464               M     retlw ((HEIGTH<<4)|MI2)
  00000031                M idx SET idx+1
                      00907             NOTE FA2, QUARTER
0222   3445               M     retlw ((QUARTER<<4)|FA2)
  00000032                M idx SET idx+1
                      00908             ;6
                      00909             NOTE MI2, HEIGTH
0223   3464               M     retlw ((HEIGTH<<4)|MI2)
  00000033                M idx SET idx+1
                      00910             NOTE MI2, HEIGTH
0224   3464               M     retlw ((HEIGTH<<4)|MI2)
  00000034                M idx SET idx+1
                      00911             NOTE MI2, HEIGTH
0225   3464               M     retlw ((HEIGTH<<4)|MI2)
  00000035                M idx SET idx+1
                      00912             NOTE MI2, HEIGTH
0226   3464               M     retlw ((HEIGTH<<4)|MI2)
  00000036                M idx SET idx+1
                      00913             NOTE MI2, HEIGTH
0227   3464               M     retlw ((HEIGTH<<4)|MI2)
  00000037                M idx SET idx+1
                      00914             NOTE FA2, HEIGTH
0228   3465               M     retlw ((HEIGTH<<4)|FA2)
  00000038                M idx SET idx+1
                      00915             NOTE SOL2, QUARTER
0229   3447               M     retlw ((QUARTER<<4)|SOL2)
  00000039                M idx SET idx+1
                      00916             ;7
                      00917             NOTE SOL2, HEIGTH
022A   3467               M     retlw ((HEIGTH<<4)|SOL2)
  0000003A                M idx SET idx+1
                      00918             NOTE SOL2, HEIGTH
022B   3467               M     retlw ((HEIGTH<<4)|SOL2)
MPASM 5.76  /HOME/JACQUES/GITHUB/SPIDER_WEB/   12-19-2018  11:45:01         PAGE 24


LOC  OBJECT CODE     LINE SOURCE TEXT
  VALUE

  0000003B                M idx SET idx+1
                      00919             NOTE DO3, HEIGTH
022C   346C               M     retlw ((HEIGTH<<4)|DO3)
  0000003C                M idx SET idx+1
                      00920             NOTE SOL2, HEIGTH
022D   3467               M     retlw ((HEIGTH<<4)|SOL2)
  0000003D                M idx SET idx+1
                      00921             NOTE SOL2, HEIGTH
022E   3467               M     retlw ((HEIGTH<<4)|SOL2)
  0000003E                M idx SET idx+1
                      00922             NOTE MI2, HEIGTH
022F   3464               M     retlw ((HEIGTH<<4)|MI2)
  0000003F                M idx SET idx+1
                      00923             NOTE RE2, QUARTER
0230   3442               M     retlw ((QUARTER<<4)|RE2)
  00000040                M idx SET idx+1
                      00924             ;8
                      00925             NOTE RE2, HEIGTH
0231   3462               M     retlw ((HEIGTH<<4)|RE2)
  00000041                M idx SET idx+1
                      00926             NOTE RE2, HEIGTH
0232   3462               M     retlw ((HEIGTH<<4)|RE2)
  00000042                M idx SET idx+1
                      00927             OCTAVE O2
0233   34F0               M     retlw OCT_SWITCH|(O2&3)
  00000043                M idx SET idx+1
                      00928             STROKE LEGATO
0234   34E2               M     retlw STROKE_SWITCH|(LEGATO&0x3)
  00000044                M idx SET idx+1
                      00929             NOTE SI2, QUARTER
0235   344B               M     retlw ((QUARTER<<4)|SI2)
  00000045                M idx SET idx+1
                      00930             STROKE NORMAL
0236   34E0               M     retlw STROKE_SWITCH|(NORMAL&0x3)
  00000046                M idx SET idx+1
                      00931             NOTE SI2, SIXTEENTH
0237   348B               M     retlw ((SIXTEENTH<<4)|SI2)
  00000047                M idx SET idx+1
                      00932             OCTAVE O3
0238   34F1               M     retlw OCT_SWITCH|(O3&3)
  00000048                M idx SET idx+1
                      00933             NOTE DO2, HEIGTH
0239   3460               M     retlw ((HEIGTH<<4)|DO2)
  00000049                M idx SET idx+1
                      00934             NOTE DO2, QUARTER
023A   3440               M     retlw ((QUARTER<<4)|DO2)
  0000004A                M idx SET idx+1
                      00935             REPT_LOOP
023B   34D0               M     retlw REPT_END
  0000004B                M idx SET idx+1
                      00936             MELODY_END
023C   34FF               M     retlw STAFF_END
                      00937         
MPASM 5.76  /HOME/JACQUES/GITHUB/SPIDER_WEB/   12-19-2018  11:45:01         PAGE 25


LOC  OBJECT CODE     LINE SOURCE TEXT
  VALUE

                      00938 ; o douce nuit
                      00939 ; REF: https://www.apprendrelaflute.com/o-douce-nuit-a-la-flute-a-bec   
                      00940         MELODY douce_nuit
  00000000                M idx SET 0
023D                      M douce_nuit 
023D   30??               M     movlw high (douce_nuit+7)
023E   008A               M     movwf PCLATH
023F   30??               M     movlw low (douce_nuit+7)
0240   07??               M     addwf note_idx,W
0241   1803               M     skpnc
Message[305]: Using default destination of 1 (file).
0242   0A8A               M     incf PCLATH
0243   0082               M     movwf PCL
                      00941         TEMPO 60
0244   342F 34F2          M     dt  low (ENV_CLK*60*4/60-1),    high (ENV_CLK*60*4/60-1)
  00000002                M idx SET idx+2
                      00942         OCTAVE O3
0246   34F1               M     retlw OCT_SWITCH|(O3&3)
  00000003                M idx SET idx+1
                      00943         ;1
                      00944         NOTE SOL2, QUARTER_DOT
0247   3457               M     retlw ((QUARTER_DOT<<4)|SOL2)
  00000004                M idx SET idx+1
                      00945         NOTE LA2, HEIGTH
0248   3469               M     retlw ((HEIGTH<<4)|LA2)
  00000005                M idx SET idx+1
                      00946         NOTE SOL2, QUARTER
0249   3447               M     retlw ((QUARTER<<4)|SOL2)
  00000006                M idx SET idx+1
                      00947         ;2
                      00948         NOTE MI2, HALF_DOT
024A   3434               M     retlw ((HALF_DOT<<4)|MI2)
  00000007                M idx SET idx+1
                      00949         ;3
                      00950         NOTE SOL2, QUARTER_DOT
024B   3457               M     retlw ((QUARTER_DOT<<4)|SOL2)
  00000008                M idx SET idx+1
                      00951         NOTE LA2, HEIGTH
024C   3469               M     retlw ((HEIGTH<<4)|LA2)
  00000009                M idx SET idx+1
                      00952         NOTE SOL2, QUARTER
024D   3447               M     retlw ((QUARTER<<4)|SOL2)
  0000000A                M idx SET idx+1
                      00953         ;4
                      00954         NOTE MI2, HALF_DOT
024E   3434               M     retlw ((HALF_DOT<<4)|MI2)
  0000000B                M idx SET idx+1
                      00955         ;5
                      00956         NOTE RE3, HALF
024F   342E               M     retlw ((HALF<<4)|RE3)
  0000000C                M idx SET idx+1
                      00957         NOTE RE3, QUARTER
0250   344E               M     retlw ((QUARTER<<4)|RE3)
MPASM 5.76  /HOME/JACQUES/GITHUB/SPIDER_WEB/   12-19-2018  11:45:01         PAGE 26


LOC  OBJECT CODE     LINE SOURCE TEXT
  VALUE

  0000000D                M idx SET idx+1
                      00958         ;6
                      00959         NOTE SI2, HALF_DOT
0251   343B               M     retlw ((HALF_DOT<<4)|SI2)
  0000000E                M idx SET idx+1
                      00960         ;7
                      00961         NOTE DO3, HALF
0252   342C               M     retlw ((HALF<<4)|DO3)
  0000000F                M idx SET idx+1
                      00962         NOTE DO3, QUARTER
0253   344C               M     retlw ((QUARTER<<4)|DO3)
  00000010                M idx SET idx+1
                      00963         ;8
                      00964         NOTE SOL2, HALF_DOT
0254   3437               M     retlw ((HALF_DOT<<4)|SOL2)
  00000011                M idx SET idx+1
                      00965         ;9
                      00966         REPT_START
0255   1500               M     bsf flags, F_REPT
0256   34C0               M     retlw (REPT_BAR)
  00000013                M idx SET idx+2
0257   3413               M     retlw idx
  00000014                M idx SET idx+1    
                      00967         NOTE LA2, HALF
0258   3429               M     retlw ((HALF<<4)|LA2)
  00000015                M idx SET idx+1
                      00968         NOTE LA2, QUARTER
0259   3449               M     retlw ((QUARTER<<4)|LA2)
  00000016                M idx SET idx+1
                      00969         ;10
                      00970         NOTE DO3, QUARTER_DOT
025A   345C               M     retlw ((QUARTER_DOT<<4)|DO3)
  00000017                M idx SET idx+1
                      00971         NOTE SI2, HEIGTH
025B   346B               M     retlw ((HEIGTH<<4)|SI2)
  00000018                M idx SET idx+1
                      00972         NOTE LA2, QUARTER
025C   3449               M     retlw ((QUARTER<<4)|LA2)
  00000019                M idx SET idx+1
                      00973         ;11
                      00974         NOTE SOL2, QUARTER_DOT
025D   3457               M     retlw ((QUARTER_DOT<<4)|SOL2)
  0000001A                M idx SET idx+1
                      00975         NOTE LA2, HEIGTH
025E   3469               M     retlw ((HEIGTH<<4)|LA2)
  0000001B                M idx SET idx+1
                      00976         NOTE SOL2, QUARTER
025F   3447               M     retlw ((QUARTER<<4)|SOL2)
  0000001C                M idx SET idx+1
                      00977         ;12
                      00978         NOTE MI2,HALF_DOT
0260   3434               M     retlw ((HALF_DOT<<4)|MI2)
  0000001D                M idx SET idx+1
MPASM 5.76  /HOME/JACQUES/GITHUB/SPIDER_WEB/   12-19-2018  11:45:01         PAGE 27


LOC  OBJECT CODE     LINE SOURCE TEXT
  VALUE

                      00979         ;13
                      00980         NOTE RE3, HALF
0261   342E               M     retlw ((HALF<<4)|RE3)
  0000001E                M idx SET idx+1
                      00981         NOTE RE3, QUARTER
0262   344E               M     retlw ((QUARTER<<4)|RE3)
  0000001F                M idx SET idx+1
                      00982         ;14
                      00983         OCTAVE O4
0263   34F2               M     retlw OCT_SWITCH|(O4&3)
  00000020                M idx SET idx+1
                      00984         NOTE FA2, QUARTER_DOT
0264   3455               M     retlw ((QUARTER_DOT<<4)|FA2)
  00000021                M idx SET idx+1
                      00985         NOTE RE2, HEIGTH
0265   3462               M     retlw ((HEIGTH<<4)|RE2)
  00000022                M idx SET idx+1
                      00986         OCTAVE O3
0266   34F1               M     retlw OCT_SWITCH|(O3&3)
  00000023                M idx SET idx+1
                      00987         NOTE SI2, QUARTER
0267   344B               M     retlw ((QUARTER<<4)|SI2)
  00000024                M idx SET idx+1
                      00988         ;15
                      00989         NOTE DO3, HALF_DOT
0268   343C               M     retlw ((HALF_DOT<<4)|DO3)
  00000025                M idx SET idx+1
                      00990         ;16
                      00991         OCTAVE O4
0269   34F2               M     retlw OCT_SWITCH|(O4&3)
  00000026                M idx SET idx+1
                      00992         NOTE MI2, HALF_DOT
026A   3434               M     retlw ((HALF_DOT<<4)|MI2)
  00000027                M idx SET idx+1
                      00993         ;17
                      00994         OCTAVE O3
026B   34F1               M     retlw OCT_SWITCH|(O3&3)
  00000028                M idx SET idx+1
                      00995         NOTE DO3, QUARTER_DOT
026C   345C               M     retlw ((QUARTER_DOT<<4)|DO3)
  00000029                M idx SET idx+1
                      00996         NOTE SOL2, HEIGTH
026D   3467               M     retlw ((HEIGTH<<4)|SOL2)
  0000002A                M idx SET idx+1
                      00997         NOTE MI2, QUARTER
026E   3444               M     retlw ((QUARTER<<4)|MI2)
  0000002B                M idx SET idx+1
                      00998         ;18
                      00999         NOTE SOL2, QUARTER_DOT
026F   3457               M     retlw ((QUARTER_DOT<<4)|SOL2)
  0000002C                M idx SET idx+1
                      01000         NOTE FA2, HEIGTH
0270   3465               M     retlw ((HEIGTH<<4)|FA2)
MPASM 5.76  /HOME/JACQUES/GITHUB/SPIDER_WEB/   12-19-2018  11:45:01         PAGE 28


LOC  OBJECT CODE     LINE SOURCE TEXT
  VALUE

  0000002D                M idx SET idx+1
                      01001         NOTE RE2, QUARTER
0271   3442               M     retlw ((QUARTER<<4)|RE2)
  0000002E                M idx SET idx+1
                      01002         ;19
                      01003         NOTE DO2, HALF_DOT
0272   3430               M     retlw ((HALF_DOT<<4)|DO2)
  0000002F                M idx SET idx+1
                      01004         REPT_LOOP
0273   34D0               M     retlw REPT_END
  00000030                M idx SET idx+1
                      01005         MELODY_END
0274   34FF               M     retlw STAFF_END
                      01006 
                      01007         
                      01008 ; Canada national anthem
                      01009 ; REF:  https://commons.wikimedia.org/wiki/File:O_Canada.pdf?uselang=fr
                      01010         MELODY o_canada
  00000000                M idx SET 0
0275                      M o_canada 
0275   30??               M     movlw high (o_canada+7)
0276   008A               M     movwf PCLATH
0277   30??               M     movlw low (o_canada+7)
0278   07??               M     addwf note_idx,W
0279   1803               M     skpnc
Message[305]: Using default destination of 1 (file).
027A   0A8A               M     incf PCLATH
027B   0082               M     movwf PCL
                      01011         TEMPO 100
027C   344F 3491          M     dt  low (ENV_CLK*60*4/100-1),   high (ENV_CLK*60*4/100-1)
  00000002                M idx SET idx+2
                      01012         OCTAVE O2
027E   34F0               M     retlw OCT_SWITCH|(O2&3)
  00000003                M idx SET idx+1
                      01013 ;1
                      01014         NOTE LA2,HALF
027F   3429               M     retlw ((HALF<<4)|LA2)
  00000004                M idx SET idx+1
                      01015         NOTE DO3, QUARTER_DOT
0280   345C               M     retlw ((QUARTER_DOT<<4)|DO3)
  00000005                M idx SET idx+1
                      01016         NOTE DO3, HEIGTH
0281   346C               M     retlw ((HEIGTH<<4)|DO3)
  00000006                M idx SET idx+1
                      01017         ;2
                      01018         NOTE FA2, HALF_DOT
0282   3435               M     retlw ((HALF_DOT<<4)|FA2)
  00000007                M idx SET idx+1
                      01019         NOTE SOL2, QUARTER
0283   3447               M     retlw ((QUARTER<<4)|SOL2)
  00000008                M idx SET idx+1
                      01020         ;3
                      01021         NOTE LA2, QUARTER
MPASM 5.76  /HOME/JACQUES/GITHUB/SPIDER_WEB/   12-19-2018  11:45:01         PAGE 29


LOC  OBJECT CODE     LINE SOURCE TEXT
  VALUE

0284   3449               M     retlw ((QUARTER<<4)|LA2)
  00000009                M idx SET idx+1
                      01022         NOTE SI2B, QUARTER
0285   344A               M     retlw ((QUARTER<<4)|SI2B)
  0000000A                M idx SET idx+1
                      01023         NOTE DO3, QUARTER
0286   344C               M     retlw ((QUARTER<<4)|DO3)
  0000000B                M idx SET idx+1
                      01024         NOTE RE3, QUARTER
0287   344E               M     retlw ((QUARTER<<4)|RE3)
  0000000C                M idx SET idx+1
                      01025         ;4
                      01026         NOTE SOL2, HALF_DOT
0288   3437               M     retlw ((HALF_DOT<<4)|SOL2)
  0000000D                M idx SET idx+1
                      01027         PAUSE QUARTER
0289   344F               M     retlw ((QUARTER<<4)|0xf)
  0000000E                M idx SET idx+1
                      01028         ;5
                      01029         NOTE LA2, HALF
028A   3429               M     retlw ((HALF<<4)|LA2)
  0000000F                M idx SET idx+1
                      01030         NOTE SI2, QUARTER_DOT
028B   345B               M     retlw ((QUARTER_DOT<<4)|SI2)
  00000010                M idx SET idx+1
                      01031         NOTE SI2, HEIGTH
028C   346B               M     retlw ((HEIGTH<<4)|SI2)
  00000011                M idx SET idx+1
                      01032         ;6
                      01033         NOTE DO3, HALF_DOT
028D   343C               M     retlw ((HALF_DOT<<4)|DO3)
  00000012                M idx SET idx+1
                      01034         NOTE RE3, QUARTER
028E   344E               M     retlw ((QUARTER<<4)|RE3)
  00000013                M idx SET idx+1
                      01035         ;7
                      01036         OCTAVE O3
028F   34F1               M     retlw OCT_SWITCH|(O3&3)
  00000014                M idx SET idx+1
                      01037         NOTE MI2, QUARTER
0290   3444               M     retlw ((QUARTER<<4)|MI2)
  00000015                M idx SET idx+1
                      01038         NOTE MI2, QUARTER
0291   3444               M     retlw ((QUARTER<<4)|MI2)
  00000016                M idx SET idx+1
                      01039         OCTAVE O2
0292   34F0               M     retlw OCT_SWITCH|(O2&3)
  00000017                M idx SET idx+1
                      01040         NOTE RE3, QUARTER
0293   344E               M     retlw ((QUARTER<<4)|RE3)
  00000018                M idx SET idx+1
                      01041         NOTE RE3, QUARTER
0294   344E               M     retlw ((QUARTER<<4)|RE3)
MPASM 5.76  /HOME/JACQUES/GITHUB/SPIDER_WEB/   12-19-2018  11:45:01         PAGE 30


LOC  OBJECT CODE     LINE SOURCE TEXT
  VALUE

  00000019                M idx SET idx+1
                      01042         ;8
                      01043         NOTE DO3, HALF_DOT
0295   343C               M     retlw ((HALF_DOT<<4)|DO3)
  0000001A                M idx SET idx+1
                      01044         NOTE SOL2, HEIGTH_DOT
0296   3477               M     retlw ((HEIGTH_DOT<<4)|SOL2)
  0000001B                M idx SET idx+1
                      01045         NOTE LA2, SIXTEENTH
0297   3489               M     retlw ((SIXTEENTH<<4)|LA2)
  0000001C                M idx SET idx+1
                      01046         ;9
                      01047         NOTE SI2B, QUARTER_DOT
0298   345A               M     retlw ((QUARTER_DOT<<4)|SI2B)
  0000001D                M idx SET idx+1
                      01048         NOTE LA2, HEIGTH
0299   3469               M     retlw ((HEIGTH<<4)|LA2)
  0000001E                M idx SET idx+1
                      01049         NOTE SOL2,QUARTER
029A   3447               M     retlw ((QUARTER<<4)|SOL2)
  0000001F                M idx SET idx+1
                      01050         NOTE LA2, HEIGTH_DOT
029B   3479               M     retlw ((HEIGTH_DOT<<4)|LA2)
  00000020                M idx SET idx+1
                      01051         NOTE SI2B, SIXTEENTH
029C   348A               M     retlw ((SIXTEENTH<<4)|SI2B)
  00000021                M idx SET idx+1
                      01052         ;10
                      01053         NOTE DO3,QUARTER_DOT
029D   345C               M     retlw ((QUARTER_DOT<<4)|DO3)
  00000022                M idx SET idx+1
                      01054         NOTE SI2B,HEIGTH
029E   346A               M     retlw ((HEIGTH<<4)|SI2B)
  00000023                M idx SET idx+1
                      01055         NOTE LA2,QUARTER
029F   3449               M     retlw ((QUARTER<<4)|LA2)
  00000024                M idx SET idx+1
                      01056         NOTE SI2B,HEIGTH_DOT
02A0   347A               M     retlw ((HEIGTH_DOT<<4)|SI2B)
  00000025                M idx SET idx+1
                      01057         NOTE DO3, SIXTEENTH
02A1   348C               M     retlw ((SIXTEENTH<<4)|DO3)
  00000026                M idx SET idx+1
                      01058         ;11
                      01059         NOTE RE3, QUARTER
02A2   344E               M     retlw ((QUARTER<<4)|RE3)
  00000027                M idx SET idx+1
                      01060         NOTE DO3, QUARTER
02A3   344C               M     retlw ((QUARTER<<4)|DO3)
  00000028                M idx SET idx+1
                      01061         NOTE SI2B,QUARTER
02A4   344A               M     retlw ((QUARTER<<4)|SI2B)
  00000029                M idx SET idx+1
MPASM 5.76  /HOME/JACQUES/GITHUB/SPIDER_WEB/   12-19-2018  11:45:01         PAGE 31


LOC  OBJECT CODE     LINE SOURCE TEXT
  VALUE

                      01062         NOTE LA2, QUARTER
02A5   3449               M     retlw ((QUARTER<<4)|LA2)
  0000002A                M idx SET idx+1
                      01063         ;12
                      01064         NOTE SOL2, HALF_DOT
02A6   3437               M     retlw ((HALF_DOT<<4)|SOL2)
  0000002B                M idx SET idx+1
                      01065         NOTE SOL2, HEIGTH_DOT
02A7   3477               M     retlw ((HEIGTH_DOT<<4)|SOL2)
  0000002C                M idx SET idx+1
                      01066         NOTE LA2, SIXTEENTH
02A8   3489               M     retlw ((SIXTEENTH<<4)|LA2)
  0000002D                M idx SET idx+1
                      01067         ;13
                      01068         NOTE SI2B, QUARTER_DOT
02A9   345A               M     retlw ((QUARTER_DOT<<4)|SI2B)
  0000002E                M idx SET idx+1
                      01069         NOTE LA2, HEIGTH
02AA   3469               M     retlw ((HEIGTH<<4)|LA2)
  0000002F                M idx SET idx+1
                      01070         NOTE SOL2, QUARTER
02AB   3447               M     retlw ((QUARTER<<4)|SOL2)
  00000030                M idx SET idx+1
                      01071         NOTE LA2, HEIGTH_DOT
02AC   3479               M     retlw ((HEIGTH_DOT<<4)|LA2)
  00000031                M idx SET idx+1
                      01072         NOTE SI2B, SIXTEENTH
02AD   348A               M     retlw ((SIXTEENTH<<4)|SI2B)
  00000032                M idx SET idx+1
                      01073         ;14
                      01074         NOTE DO3, QUARTER_DOT
02AE   345C               M     retlw ((QUARTER_DOT<<4)|DO3)
  00000033                M idx SET idx+1
                      01075         NOTE SI2B, HEIGTH
02AF   346A               M     retlw ((HEIGTH<<4)|SI2B)
  00000034                M idx SET idx+1
                      01076         NOTE LA2, QUARTER
02B0   3449               M     retlw ((QUARTER<<4)|LA2)
  00000035                M idx SET idx+1
                      01077         NOTE LA2, QUARTER
02B1   3449               M     retlw ((QUARTER<<4)|LA2)
  00000036                M idx SET idx+1
                      01078         ;15
                      01079         NOTE SOL2, QUARTER
02B2   3447               M     retlw ((QUARTER<<4)|SOL2)
  00000037                M idx SET idx+1
                      01080         NOTE DO3, QUARTER
02B3   344C               M     retlw ((QUARTER<<4)|DO3)
  00000038                M idx SET idx+1
                      01081         NOTE DO3, HEIGTH
02B4   346C               M     retlw ((HEIGTH<<4)|DO3)
  00000039                M idx SET idx+1
                      01082         NOTE SI2, HEIGTH
MPASM 5.76  /HOME/JACQUES/GITHUB/SPIDER_WEB/   12-19-2018  11:45:01         PAGE 32


LOC  OBJECT CODE     LINE SOURCE TEXT
  VALUE

02B5   346B               M     retlw ((HEIGTH<<4)|SI2)
  0000003A                M idx SET idx+1
                      01083         NOTE LA2, HEIGTH
02B6   3469               M     retlw ((HEIGTH<<4)|LA2)
  0000003B                M idx SET idx+1
                      01084         NOTE SI2, HEIGTH
02B7   346B               M     retlw ((HEIGTH<<4)|SI2)
  0000003C                M idx SET idx+1
                      01085         ;16
                      01086         NOTE DO3, HALF_DOT
02B8   343C               M     retlw ((HALF_DOT<<4)|DO3)
  0000003D                M idx SET idx+1
                      01087         PAUSE QUARTER
02B9   344F               M     retlw ((QUARTER<<4)|0xf)
  0000003E                M idx SET idx+1
                      01088         ;17
                      01089         NOTE LA2, HALF
02BA   3429               M     retlw ((HALF<<4)|LA2)
  0000003F                M idx SET idx+1
                      01090         NOTE DO3, QUARTER_DOT
02BB   345C               M     retlw ((QUARTER_DOT<<4)|DO3)
  00000040                M idx SET idx+1
                      01091         NOTE DO3, HEIGTH
02BC   346C               M     retlw ((HEIGTH<<4)|DO3)
  00000041                M idx SET idx+1
                      01092         ;18
                      01093         NOTE FA2, HALF_DOT
02BD   3435               M     retlw ((HALF_DOT<<4)|FA2)
  00000042                M idx SET idx+1
                      01094         PAUSE QUARTER
02BE   344F               M     retlw ((QUARTER<<4)|0xf)
  00000043                M idx SET idx+1
                      01095         ;19
                      01096         NOTE SI2B, HALF
02BF   342A               M     retlw ((HALF<<4)|SI2B)
  00000044                M idx SET idx+1
                      01097         NOTE RE3, QUARTER_DOT
02C0   345E               M     retlw ((QUARTER_DOT<<4)|RE3)
  00000045                M idx SET idx+1
                      01098         NOTE RE3, HEIGTH
02C1   346E               M     retlw ((HEIGTH<<4)|RE3)
  00000046                M idx SET idx+1
                      01099         ;20
                      01100         NOTE SOL2, HALF_DOT
02C2   3437               M     retlw ((HALF_DOT<<4)|SOL2)
  00000047                M idx SET idx+1
                      01101         PAUSE QUARTER
02C3   344F               M     retlw ((QUARTER<<4)|0xf)
  00000048                M idx SET idx+1
                      01102         ;21
                      01103         NOTE DO3, HALF
02C4   342C               M     retlw ((HALF<<4)|DO3)
  00000049                M idx SET idx+1
MPASM 5.76  /HOME/JACQUES/GITHUB/SPIDER_WEB/   12-19-2018  11:45:01         PAGE 33


LOC  OBJECT CODE     LINE SOURCE TEXT
  VALUE

                      01104         NOTE DO3D, QUARTER_DOT
02C5   345D               M     retlw ((QUARTER_DOT<<4)|DO3D)
  0000004A                M idx SET idx+1
                      01105         NOTE DO3, HEIGTH
02C6   346C               M     retlw ((HEIGTH<<4)|DO3)
  0000004B                M idx SET idx+1
                      01106         ;22
                      01107         NOTE RE3, QUARTER
02C7   344E               M     retlw ((QUARTER<<4)|RE3)
  0000004C                M idx SET idx+1
                      01108         NOTE SI2B, QUARTER
02C8   344A               M     retlw ((QUARTER<<4)|SI2B)
  0000004D                M idx SET idx+1
                      01109         NOTE LA2, QUARTER
02C9   3449               M     retlw ((QUARTER<<4)|LA2)
  0000004E                M idx SET idx+1
                      01110         NOTE SOL2, QUARTER
02CA   3447               M     retlw ((QUARTER<<4)|SOL2)
  0000004F                M idx SET idx+1
                      01111         ;23
                      01112         NOTE FA2, HALF
02CB   3425               M     retlw ((HALF<<4)|FA2)
  00000050                M idx SET idx+1
                      01113         NOTE SOL2, HALF
02CC   3427               M     retlw ((HALF<<4)|SOL2)
  00000051                M idx SET idx+1
                      01114         ;24
                      01115         NOTE LA2, HALF_DOT
02CD   3439               M     retlw ((HALF_DOT<<4)|LA2)
  00000052                M idx SET idx+1
                      01116         PAUSE QUARTER
02CE   344F               M     retlw ((QUARTER<<4)|0xf)
  00000053                M idx SET idx+1
                      01117         ;25
                      01118         NOTE DO3, HALF
02CF   342C               M     retlw ((HALF<<4)|DO3)
  00000054                M idx SET idx+1
                      01119         OCTAVE O3
02D0   34F1               M     retlw OCT_SWITCH|(O3&3)
  00000055                M idx SET idx+1
                      01120         NOTE FA2, QUARTER_DOT
02D1   3455               M     retlw ((QUARTER_DOT<<4)|FA2)
  00000056                M idx SET idx+1
                      01121         NOTE FA2, HEIGTH
02D2   3465               M     retlw ((HEIGTH<<4)|FA2)
  00000057                M idx SET idx+1
                      01122         ;26
                      01123         OCTAVE O2
02D3   34F0               M     retlw OCT_SWITCH|(O2&3)
  00000058                M idx SET idx+1
                      01124         NOTE RE3, QUARTER
02D4   344E               M     retlw ((QUARTER<<4)|RE3)
  00000059                M idx SET idx+1
MPASM 5.76  /HOME/JACQUES/GITHUB/SPIDER_WEB/   12-19-2018  11:45:01         PAGE 34


LOC  OBJECT CODE     LINE SOURCE TEXT
  VALUE

                      01125         NOTE SI2B, QUARTER
02D5   344A               M     retlw ((QUARTER<<4)|SI2B)
  0000005A                M idx SET idx+1
                      01126         NOTE LA2, QUARTER
02D6   3449               M     retlw ((QUARTER<<4)|LA2)
  0000005B                M idx SET idx+1
                      01127         NOTE SOL2, QUARTER
02D7   3447               M     retlw ((QUARTER<<4)|SOL2)
  0000005C                M idx SET idx+1
                      01128         ;27
                      01129         NOTE DO3, HALF
02D8   342C               M     retlw ((HALF<<4)|DO3)
  0000005D                M idx SET idx+1
                      01130         NOTE MI2, HALF
02D9   3424               M     retlw ((HALF<<4)|MI2)
  0000005E                M idx SET idx+1
                      01131         ;28
                      01132         NOTE FA2, HALF_DOT
02DA   3435               M     retlw ((HALF_DOT<<4)|FA2)
  0000005F                M idx SET idx+1
                      01133         PAUSE QUARTER
02DB   344F               M     retlw ((QUARTER<<4)|0xf)
  00000060                M idx SET idx+1
                      01134         MELODY_END
02DC   34FF               M     retlw STAFF_END
                      01135         
                      01136 ; Germany national anthem
                      01137 ; REF: https://www.apprendrelaflute.com/hymne-national-allemand-a-la-flute-a-bec        
                      01138         MELODY deutschlandlied
  00000000                M idx SET 0
02DD                      M deutschlandlied 
02DD   30??               M     movlw high (deutschlandlied+7)
02DE   008A               M     movwf PCLATH
02DF   30??               M     movlw low (deutschlandlied+7)
02E0   07??               M     addwf note_idx,W
02E1   1803               M     skpnc
Message[305]: Using default destination of 1 (file).
02E2   0A8A               M     incf PCLATH
02E3   0082               M     movwf PCL
                      01139         TEMPO 80
02E4   34A3 34B5          M     dt  low (ENV_CLK*60*4/80-1),    high (ENV_CLK*60*4/80-1)
  00000002                M idx SET idx+2
                      01140         ;1
                      01141         REPT_START
02E6   1500               M     bsf flags, F_REPT
02E7   34C0               M     retlw (REPT_BAR)
  00000004                M idx SET idx+2
02E8   3404               M     retlw idx
  00000005                M idx SET idx+1    
                      01142         OCTAVE O3
02E9   34F1               M     retlw OCT_SWITCH|(O3&3)
  00000006                M idx SET idx+1
                      01143         NOTE SOL2, QUARTER_DOT
MPASM 5.76  /HOME/JACQUES/GITHUB/SPIDER_WEB/   12-19-2018  11:45:01         PAGE 35


LOC  OBJECT CODE     LINE SOURCE TEXT
  VALUE

02EA   3457               M     retlw ((QUARTER_DOT<<4)|SOL2)
  00000007                M idx SET idx+1
                      01144         NOTE LA2, HEIGTH
02EB   3469               M     retlw ((HEIGTH<<4)|LA2)
  00000008                M idx SET idx+1
                      01145         ;2
                      01146         NOTE SI2, QUARTER
02EC   344B               M     retlw ((QUARTER<<4)|SI2)
  00000009                M idx SET idx+1
                      01147         NOTE LA2, QUARTER
02ED   3449               M     retlw ((QUARTER<<4)|LA2)
  0000000A                M idx SET idx+1
                      01148         NOTE DO3, QUARTER
02EE   344C               M     retlw ((QUARTER<<4)|DO3)
  0000000B                M idx SET idx+1
                      01149         NOTE SI2, QUARTER
02EF   344B               M     retlw ((QUARTER<<4)|SI2)
  0000000C                M idx SET idx+1
                      01150         ;3
                      01151         STROKE LEGATO
02F0   34E2               M     retlw STROKE_SWITCH|(LEGATO&0x3)
  0000000D                M idx SET idx+1
                      01152         NOTE LA2, HEIGTH
02F1   3469               M     retlw ((HEIGTH<<4)|LA2)
  0000000E                M idx SET idx+1
                      01153         STROKE NORMAL
02F2   34E0               M     retlw STROKE_SWITCH|(NORMAL&0x3)
  0000000F                M idx SET idx+1
                      01154         NOTE FA2D, HEIGTH
02F3   3466               M     retlw ((HEIGTH<<4)|FA2D)
  00000010                M idx SET idx+1
                      01155         NOTE SOL2, QUARTER
02F4   3447               M     retlw ((QUARTER<<4)|SOL2)
  00000011                M idx SET idx+1
                      01156         OCTAVE O4
02F5   34F2               M     retlw OCT_SWITCH|(O4&3)
  00000012                M idx SET idx+1
                      01157         NOTE MI2, QUARTER
02F6   3444               M     retlw ((QUARTER<<4)|MI2)
  00000013                M idx SET idx+1
                      01158         NOTE RE2, QUARTER
02F7   3442               M     retlw ((QUARTER<<4)|RE2)
  00000014                M idx SET idx+1
                      01159         OCTAVE O3
02F8   34F1               M     retlw OCT_SWITCH|(O3&3)
  00000015                M idx SET idx+1
                      01160         ;4
                      01161         NOTE DO3, QUARTER
02F9   344C               M     retlw ((QUARTER<<4)|DO3)
  00000016                M idx SET idx+1
                      01162         NOTE SI2, QUARTER
02FA   344B               M     retlw ((QUARTER<<4)|SI2)
  00000017                M idx SET idx+1
MPASM 5.76  /HOME/JACQUES/GITHUB/SPIDER_WEB/   12-19-2018  11:45:01         PAGE 36


LOC  OBJECT CODE     LINE SOURCE TEXT
  VALUE

                      01163         NOTE LA2, QUARTER
02FB   3449               M     retlw ((QUARTER<<4)|LA2)
  00000018                M idx SET idx+1
                      01164         NOTE SI2, HEIGTH
02FC   346B               M     retlw ((HEIGTH<<4)|SI2)
  00000019                M idx SET idx+1
                      01165         NOTE SOL2, HEIGTH
02FD   3467               M     retlw ((HEIGTH<<4)|SOL2)
  0000001A                M idx SET idx+1
                      01166         ;5
                      01167         NOTE RE3, HALF
02FE   342E               M     retlw ((HALF<<4)|RE3)
  0000001B                M idx SET idx+1
                      01168         REPT_LOOP
02FF   34D0               M     retlw REPT_END
  0000001C                M idx SET idx+1
                      01169         ;6
                      01170         NOTE LA2, QUARTER
0300   3449               M     retlw ((QUARTER<<4)|LA2)
  0000001D                M idx SET idx+1
                      01171         NOTE SI2, QUARTER
0301   344B               M     retlw ((QUARTER<<4)|SI2)
  0000001E                M idx SET idx+1
                      01172         ;7
                      01173         STROKE LEGATO
0302   34E2               M     retlw STROKE_SWITCH|(LEGATO&0x3)
  0000001F                M idx SET idx+1
                      01174         NOTE LA2, HEIGTH
0303   3469               M     retlw ((HEIGTH<<4)|LA2)
  00000020                M idx SET idx+1
                      01175         STROKE NORMAL
0304   34E0               M     retlw STROKE_SWITCH|(NORMAL&0x3)
  00000021                M idx SET idx+1
                      01176         NOTE FA2D, HEIGTH
0305   3466               M     retlw ((HEIGTH<<4)|FA2D)
  00000022                M idx SET idx+1
                      01177         NOTE RE2, QUARTER
0306   3442               M     retlw ((QUARTER<<4)|RE2)
  00000023                M idx SET idx+1
                      01178         NOTE DO3, QUARTER
0307   344C               M     retlw ((QUARTER<<4)|DO3)
  00000024                M idx SET idx+1
                      01179         NOTE SI2, QUARTER
0308   344B               M     retlw ((QUARTER<<4)|SI2)
  00000025                M idx SET idx+1
                      01180         ;8
                      01181         STROKE LEGATO
0309   34E2               M     retlw STROKE_SWITCH|(LEGATO&0x3)
  00000026                M idx SET idx+1
                      01182         NOTE LA2, HEIGTH
030A   3469               M     retlw ((HEIGTH<<4)|LA2)
  00000027                M idx SET idx+1
                      01183         STROKE NORMAL
MPASM 5.76  /HOME/JACQUES/GITHUB/SPIDER_WEB/   12-19-2018  11:45:01         PAGE 37


LOC  OBJECT CODE     LINE SOURCE TEXT
  VALUE

030B   34E0               M     retlw STROKE_SWITCH|(NORMAL&0x3)
  00000028                M idx SET idx+1
                      01184         NOTE FA2D, HEIGTH
030C   3466               M     retlw ((HEIGTH<<4)|FA2D)
  00000029                M idx SET idx+1
                      01185         NOTE RE2, QUARTER
030D   3442               M     retlw ((QUARTER<<4)|RE2)
  0000002A                M idx SET idx+1
                      01186         NOTE RE3, QUARTER
030E   344E               M     retlw ((QUARTER<<4)|RE3)
  0000002B                M idx SET idx+1
                      01187         NOTE DO3, QUARTER
030F   344C               M     retlw ((QUARTER<<4)|DO3)
  0000002C                M idx SET idx+1
                      01188         ;9
                      01189         NOTE SI2, QUARTER_DOT
0310   345B               M     retlw ((QUARTER_DOT<<4)|SI2)
  0000002D                M idx SET idx+1
                      01190         NOTE SI2, HEIGTH
0311   346B               M     retlw ((HEIGTH<<4)|SI2)
  0000002E                M idx SET idx+1
                      01191         NOTE DO3D,QUARTER
0312   344D               M     retlw ((QUARTER<<4)|DO3D)
  0000002F                M idx SET idx+1
                      01192         STROKE LEGATO
0313   34E2               M     retlw STROKE_SWITCH|(LEGATO&0x3)
  00000030                M idx SET idx+1
                      01193         NOTE DO3D,HEIGTH
0314   346D               M     retlw ((HEIGTH<<4)|DO3D)
  00000031                M idx SET idx+1
                      01194         STROKE NORMAL
0315   34E0               M     retlw STROKE_SWITCH|(NORMAL&0x3)
  00000032                M idx SET idx+1
                      01195         NOTE RE3, HEIGTH
0316   346E               M     retlw ((HEIGTH<<4)|RE3)
  00000033                M idx SET idx+1
                      01196         ;10
                      01197         NOTE RE3, HALF
0317   342E               M     retlw ((HALF<<4)|RE3)
  00000034                M idx SET idx+1
                      01198         ;11
                      01199         REPT_START
0318   1500               M     bsf flags, F_REPT
0319   34C0               M     retlw (REPT_BAR)
  00000036                M idx SET idx+2
031A   3436               M     retlw idx
  00000037                M idx SET idx+1    
                      01200         OCTAVE O4
031B   34F2               M     retlw OCT_SWITCH|(O4&3)
  00000038                M idx SET idx+1
                      01201         NOTE SOL2, QUARTER_DOT
031C   3457               M     retlw ((QUARTER_DOT<<4)|SOL2)
  00000039                M idx SET idx+1
MPASM 5.76  /HOME/JACQUES/GITHUB/SPIDER_WEB/   12-19-2018  11:45:01         PAGE 38


LOC  OBJECT CODE     LINE SOURCE TEXT
  VALUE

                      01202         NOTE FA2D,HEIGTH
031D   3466               M     retlw ((HEIGTH<<4)|FA2D)
  0000003A                M idx SET idx+1
                      01203         ;12
                      01204         STROKE LEGATO
031E   34E2               M     retlw STROKE_SWITCH|(LEGATO&0x3)
  0000003B                M idx SET idx+1
                      01205         NOTE FA2D,HEIGTH
031F   3466               M     retlw ((HEIGTH<<4)|FA2D)
  0000003C                M idx SET idx+1
                      01206         STROKE NORMAL
0320   34E0               M     retlw STROKE_SWITCH|(NORMAL&0x3)
  0000003D                M idx SET idx+1
                      01207         NOTE MI2, HEIGTH
0321   3464               M     retlw ((HEIGTH<<4)|MI2)
  0000003E                M idx SET idx+1
                      01208         NOTE RE2, QUARTER
0322   3442               M     retlw ((QUARTER<<4)|RE2)
  0000003F                M idx SET idx+1
                      01209         NOTE MI2, QUARTER_DOT
0323   3454               M     retlw ((QUARTER_DOT<<4)|MI2)
  00000040                M idx SET idx+1
                      01210         NOTE RE2, HEIGTH
0324   3462               M     retlw ((HEIGTH<<4)|RE2)
  00000041                M idx SET idx+1
                      01211         ;13
                      01212         STROKE LEGATO
0325   34E2               M     retlw STROKE_SWITCH|(LEGATO&0x3)
  00000042                M idx SET idx+1
                      01213         NOTE RE2,HEIGTH
0326   3462               M     retlw ((HEIGTH<<4)|RE2)
  00000043                M idx SET idx+1
                      01214         STROKE NORMAL
0327   34E0               M     retlw STROKE_SWITCH|(NORMAL&0x3)
  00000044                M idx SET idx+1
                      01215         NOTE DO2,HEIGTH
0328   3460               M     retlw ((HEIGTH<<4)|DO2)
  00000045                M idx SET idx+1
                      01216         OCTAVE O3
0329   34F1               M     retlw OCT_SWITCH|(O3&3)
  00000046                M idx SET idx+1
                      01217         NOTE SI2, QUARTER
032A   344B               M     retlw ((QUARTER<<4)|SI2)
  00000047                M idx SET idx+1
                      01218         NOTE LA2, QUARTER_DOT
032B   3459               M     retlw ((QUARTER_DOT<<4)|LA2)
  00000048                M idx SET idx+1
                      01219         NOTE SI2,SIXTEENTH
032C   348B               M     retlw ((SIXTEENTH<<4)|SI2)
  00000049                M idx SET idx+1
                      01220         NOTE DO3, SIXTEENTH
032D   348C               M     retlw ((SIXTEENTH<<4)|DO3)
  0000004A                M idx SET idx+1
MPASM 5.76  /HOME/JACQUES/GITHUB/SPIDER_WEB/   12-19-2018  11:45:01         PAGE 39


LOC  OBJECT CODE     LINE SOURCE TEXT
  VALUE

                      01221         ;14
                      01222         STROKE LEGATO
032E   34E2               M     retlw STROKE_SWITCH|(LEGATO&0x3)
  0000004B                M idx SET idx+1
                      01223         NOTE RE3, HEIGTH
032F   346E               M     retlw ((HEIGTH<<4)|RE3)
  0000004C                M idx SET idx+1
                      01224         STROKE NORMAL
0330   34E0               M     retlw STROKE_SWITCH|(NORMAL&0x3)
  0000004D                M idx SET idx+1
                      01225         OCTAVE O4
0331   34F2               M     retlw OCT_SWITCH|(O4&3)
  0000004E                M idx SET idx+1
                      01226         NOTE MI2,HEIGTH
0332   3464               M     retlw ((HEIGTH<<4)|MI2)
  0000004F                M idx SET idx+1
                      01227         STROKE LEGATO
0333   34E2               M     retlw STROKE_SWITCH|(LEGATO&0x3)
  00000050                M idx SET idx+1
                      01228         NOTE DO2,HEIGTH
0334   3460               M     retlw ((HEIGTH<<4)|DO2)
  00000051                M idx SET idx+1
                      01229         STROKE NORMAL
0335   34E0               M     retlw STROKE_SWITCH|(NORMAL&0x3)
  00000052                M idx SET idx+1
                      01230         OCTAVE O3
0336   34F1               M     retlw OCT_SWITCH|(O3&3)
  00000053                M idx SET idx+1
                      01231         NOTE LA2,HEIGTH
0337   3469               M     retlw ((HEIGTH<<4)|LA2)
  00000054                M idx SET idx+1
                      01232         NOTE SOL2, QUARTER
0338   3447               M     retlw ((QUARTER<<4)|SOL2)
  00000055                M idx SET idx+1
                      01233         STROKE LEGATO
0339   34E2               M     retlw STROKE_SWITCH|(LEGATO&0x3)
  00000056                M idx SET idx+1
                      01234         NOTE SI2, HEIGTH
033A   346B               M     retlw ((HEIGTH<<4)|SI2)
  00000057                M idx SET idx+1
                      01235         STROKE NORMAL
033B   34E0               M     retlw STROKE_SWITCH|(NORMAL&0x3)
  00000058                M idx SET idx+1
                      01236         NOTE LA2, HEIGTH
033C   3469               M     retlw ((HEIGTH<<4)|LA2)
  00000059                M idx SET idx+1
                      01237         ;15
                      01238         NOTE SOL2, HALF
033D   3427               M     retlw ((HALF<<4)|SOL2)
  0000005A                M idx SET idx+1
                      01239         REPT_LOOP
033E   34D0               M     retlw REPT_END
  0000005B                M idx SET idx+1
MPASM 5.76  /HOME/JACQUES/GITHUB/SPIDER_WEB/   12-19-2018  11:45:01         PAGE 40


LOC  OBJECT CODE     LINE SOURCE TEXT
  VALUE

                      01240         MELODY_END
033F   34FF               M     retlw STAFF_END
                      01241         
                      01242 ; A Bytown, c'est une Jolie Place
                      01243 ; REF: https://www.partitionsdechansons.com/pdf/12987/Traditionnel-A-Bytown-c-est-une-jolie-Place.html  
                      01244         MELODY a_bytown
  00000000                M idx SET 0
0340                      M a_bytown 
0340   30??               M     movlw high (a_bytown+7)
0341   008A               M     movwf PCLATH
0342   30??               M     movlw low (a_bytown+7)
0343   07??               M     addwf note_idx,W
0344   1803               M     skpnc
Message[305]: Using default destination of 1 (file).
0345   0A8A               M     incf PCLATH
0346   0082               M     movwf PCL
                      01245         TEMPO 120
0347   3417 3479          M     dt  low (ENV_CLK*60*4/120-1),   high (ENV_CLK*60*4/120-1)
  00000002                M idx SET idx+2
                      01246         OCTAVE O2
0349   34F0               M     retlw OCT_SWITCH|(O2&3)
  00000003                M idx SET idx+1
                      01247         ;1
                      01248         NOTE RE2, QUARTER
034A   3442               M     retlw ((QUARTER<<4)|RE2)
  00000004                M idx SET idx+1
                      01249         NOTE SOL2, QUARTER
034B   3447               M     retlw ((QUARTER<<4)|SOL2)
  00000005                M idx SET idx+1
                      01250         ;2
                      01251         STROKE LEGATO
034C   34E2               M     retlw STROKE_SWITCH|(LEGATO&0x3)
  00000006                M idx SET idx+1
                      01252         NOTE SOL2, QUARTER
034D   3447               M     retlw ((QUARTER<<4)|SOL2)
  00000007                M idx SET idx+1
                      01253         NOTE SOL2, HEIGTH
034E   3467               M     retlw ((HEIGTH<<4)|SOL2)
  00000008                M idx SET idx+1
                      01254         STROKE NORMAL
034F   34E0               M     retlw STROKE_SWITCH|(NORMAL&0x3)
  00000009                M idx SET idx+1
                      01255         NOTE SI2, SIXTEENTH
0350   348B               M     retlw ((SIXTEENTH<<4)|SI2)
  0000000A                M idx SET idx+1
                      01256         NOTE SI2, SIXTEENTH
0351   348B               M     retlw ((SIXTEENTH<<4)|SI2)
  0000000B                M idx SET idx+1
                      01257         ;3
                      01258         NOTE LA2, QUARTER
0352   3449               M     retlw ((QUARTER<<4)|LA2)
  0000000C                M idx SET idx+1
                      01259         NOTE SOL2, QUARTER
MPASM 5.76  /HOME/JACQUES/GITHUB/SPIDER_WEB/   12-19-2018  11:45:01         PAGE 41


LOC  OBJECT CODE     LINE SOURCE TEXT
  VALUE

0353   3447               M     retlw ((QUARTER<<4)|SOL2)
  0000000D                M idx SET idx+1
                      01260         ;4
                      01261         NOTE MI2, HALF
0354   3424               M     retlw ((HALF<<4)|MI2)
  0000000E                M idx SET idx+1
                      01262         ;5
                      01263         NOTE RE2, QUARTER
0355   3442               M     retlw ((QUARTER<<4)|RE2)
  0000000F                M idx SET idx+1
                      01264         NOTE FA2D, QUARTER
0356   3446               M     retlw ((QUARTER<<4)|FA2D)
  00000010                M idx SET idx+1
                      01265         ;6
                      01266         NOTE LA2, QUARTER
0357   3449               M     retlw ((QUARTER<<4)|LA2)
  00000011                M idx SET idx+1
                      01267         NOTE SOL2, QUARTER
0358   3447               M     retlw ((QUARTER<<4)|SOL2)
  00000012                M idx SET idx+1
                      01268         ;7
                      01269         NOTE SI2, QUARTER
0359   344B               M     retlw ((QUARTER<<4)|SI2)
  00000013                M idx SET idx+1
                      01270         NOTE RE3, QUARTER
035A   344E               M     retlw ((QUARTER<<4)|RE3)
  00000014                M idx SET idx+1
                      01271         ;8
                      01272         NOTE SOL2, HALF
035B   3427               M     retlw ((HALF<<4)|SOL2)
  00000015                M idx SET idx+1
                      01273         ;9
                      01274         PAUSE QUARTER
035C   344F               M     retlw ((QUARTER<<4)|0xf)
  00000016                M idx SET idx+1
                      01275         NOTE DO3, QUARTER
035D   344C               M     retlw ((QUARTER<<4)|DO3)
  00000017                M idx SET idx+1
                      01276         ;10
                      01277         NOTE SI2, QUARTER_DOT
035E   345B               M     retlw ((QUARTER_DOT<<4)|SI2)
  00000018                M idx SET idx+1
                      01278         NOTE LA2, HEIGTH
035F   3469               M     retlw ((HEIGTH<<4)|LA2)
  00000019                M idx SET idx+1
                      01279         ;11
                      01280         NOTE SI2, QUARTER
0360   344B               M     retlw ((QUARTER<<4)|SI2)
  0000001A                M idx SET idx+1
                      01281         NOTE RE3, QUARTER
0361   344E               M     retlw ((QUARTER<<4)|RE3)
  0000001B                M idx SET idx+1
                      01282         ;12
MPASM 5.76  /HOME/JACQUES/GITHUB/SPIDER_WEB/   12-19-2018  11:45:01         PAGE 42


LOC  OBJECT CODE     LINE SOURCE TEXT
  VALUE

                      01283         STROKE LEGATO
0362   34E2               M     retlw STROKE_SWITCH|(LEGATO&0x3)
  0000001C                M idx SET idx+1
                      01284         NOTE SOL2, HALF
0363   3427               M     retlw ((HALF<<4)|SOL2)
  0000001D                M idx SET idx+1
                      01285         ;13
                      01286         NOTE SOL2, QUARTER
0364   3447               M     retlw ((QUARTER<<4)|SOL2)
  0000001E                M idx SET idx+1
                      01287         STROKE NORMAL
0365   34E0               M     retlw STROKE_SWITCH|(NORMAL&0x3)
  0000001F                M idx SET idx+1
                      01288         PAUSE QUARTER
0366   344F               M     retlw ((QUARTER<<4)|0xf)
  00000020                M idx SET idx+1
                      01289         ;14
                      01290         NOTE RE2, QUARTER
0367   3442               M     retlw ((QUARTER<<4)|RE2)
  00000021                M idx SET idx+1
                      01291         NOTE SOL2, QUARTER
0368   3447               M     retlw ((QUARTER<<4)|SOL2)
  00000022                M idx SET idx+1
                      01292         ;15
                      01293         NOTE SOL2, QUARTER
0369   3447               M     retlw ((QUARTER<<4)|SOL2)
  00000023                M idx SET idx+1
                      01294         NOTE FA2D, HEIGTH
036A   3466               M     retlw ((HEIGTH<<4)|FA2D)
  00000024                M idx SET idx+1
                      01295         NOTE MI2, HEIGTH
036B   3464               M     retlw ((HEIGTH<<4)|MI2)
  00000025                M idx SET idx+1
                      01296         ;16
                      01297         NOTE FA2D, QUARTER_DOT
036C   3456               M     retlw ((QUARTER_DOT<<4)|FA2D)
  00000026                M idx SET idx+1
                      01298         NOTE SOL2, HEIGTH
036D   3467               M     retlw ((HEIGTH<<4)|SOL2)
  00000027                M idx SET idx+1
                      01299         ;17
                      01300         NOTE LA2, QUARTER_DOT
036E   3459               M     retlw ((QUARTER_DOT<<4)|LA2)
  00000028                M idx SET idx+1
                      01301         NOTE FA2D, HEIGTH
036F   3466               M     retlw ((HEIGTH<<4)|FA2D)
  00000029                M idx SET idx+1
                      01302         ;18
                      01303         NOTE SOL2, QUARTER
0370   3447               M     retlw ((QUARTER<<4)|SOL2)
  0000002A                M idx SET idx+1
                      01304         NOTE RE3, QUARTER
0371   344E               M     retlw ((QUARTER<<4)|RE3)
MPASM 5.76  /HOME/JACQUES/GITHUB/SPIDER_WEB/   12-19-2018  11:45:01         PAGE 43


LOC  OBJECT CODE     LINE SOURCE TEXT
  VALUE

  0000002B                M idx SET idx+1
                      01305         ;19
                      01306         STROKE LEGATO
0372   34E2               M     retlw STROKE_SWITCH|(LEGATO&0x3)
  0000002C                M idx SET idx+1
                      01307         NOTE RE3, QUARTER
0373   344E               M     retlw ((QUARTER<<4)|RE3)
  0000002D                M idx SET idx+1
                      01308         NOTE RE3, HEIGTH
0374   346E               M     retlw ((HEIGTH<<4)|RE3)
  0000002E                M idx SET idx+1
                      01309         STROKE NORMAL
0375   34E0               M     retlw STROKE_SWITCH|(NORMAL&0x3)
  0000002F                M idx SET idx+1
                      01310         NOTE DO3, HEIGTH
0376   346C               M     retlw ((HEIGTH<<4)|DO3)
  00000030                M idx SET idx+1
                      01311         NOTE DO3, HEIGTH
0377   346C               M     retlw ((HEIGTH<<4)|DO3)
  00000031                M idx SET idx+1
                      01312         ;20
                      01313         NOTE SI2, QUARTER_DOT
0378   345B               M     retlw ((QUARTER_DOT<<4)|SI2)
  00000032                M idx SET idx+1
                      01314         NOTE LA2, HEIGTH
0379   3469               M     retlw ((HEIGTH<<4)|LA2)
  00000033                M idx SET idx+1
                      01315         ;21
                      01316         NOTE SOL2, QUARTER
037A   3447               M     retlw ((QUARTER<<4)|SOL2)
  00000034                M idx SET idx+1
                      01317         PAUSE QUARTER
037B   344F               M     retlw ((QUARTER<<4)|0xf)
  00000035                M idx SET idx+1
                      01318         MELODY_END
037C   34FF               M     retlw STAFF_END
                      01319         
                      01320 ; go down moses
                      01321 ; REF: https://www.apprendrelaflute.com/go-down-moses-a-la-flute-a-bec  
                      01322         MELODY go_down_moses
  00000000                M idx SET 0
037D                      M go_down_moses 
037D   30??               M     movlw high (go_down_moses+7)
037E   008A               M     movwf PCLATH
037F   30??               M     movlw low (go_down_moses+7)
0380   07??               M     addwf note_idx,W
0381   1803               M     skpnc
Message[305]: Using default destination of 1 (file).
0382   0A8A               M     incf PCLATH
0383   0082               M     movwf PCL
                      01323         TEMPO 120
0384   3417 3479          M     dt  low (ENV_CLK*60*4/120-1),   high (ENV_CLK*60*4/120-1)
  00000002                M idx SET idx+2
MPASM 5.76  /HOME/JACQUES/GITHUB/SPIDER_WEB/   12-19-2018  11:45:01         PAGE 44


LOC  OBJECT CODE     LINE SOURCE TEXT
  VALUE

                      01324         OCTAVE O2
0386   34F0               M     retlw OCT_SWITCH|(O2&3)
  00000003                M idx SET idx+1
                      01325         ;1
                      01326         NOTE MI2, QUARTER
0387   3444               M     retlw ((QUARTER<<4)|MI2)
  00000004                M idx SET idx+1
                      01327         ;2
                      01328         NOTE DO3, QUARTER
0388   344C               M     retlw ((QUARTER<<4)|DO3)
  00000005                M idx SET idx+1
                      01329         NOTE DO3, QUARTER
0389   344C               M     retlw ((QUARTER<<4)|DO3)
  00000006                M idx SET idx+1
                      01330         NOTE SI2, QUARTER
038A   344B               M     retlw ((QUARTER<<4)|SI2)
  00000007                M idx SET idx+1
                      01331         NOTE SI2, QUARTER
038B   344B               M     retlw ((QUARTER<<4)|SI2)
  00000008                M idx SET idx+1
                      01332         ;3
                      01333         NOTE DO3, HEIGTH
038C   346C               M     retlw ((HEIGTH<<4)|DO3)
  00000009                M idx SET idx+1
                      01334         NOTE DO3, QUARTER
038D   344C               M     retlw ((QUARTER<<4)|DO3)
  0000000A                M idx SET idx+1
                      01335         STROKE LEGATO
038E   34E2               M     retlw STROKE_SWITCH|(LEGATO&0x3)
  0000000B                M idx SET idx+1
                      01336         NOTE LA2, HEIGTH
038F   3469               M     retlw ((HEIGTH<<4)|LA2)
  0000000C                M idx SET idx+1
                      01337         STROKE NORMAL
0390   34E0               M     retlw STROKE_SWITCH|(NORMAL&0x3)
  0000000D                M idx SET idx+1
                      01338         NOTE LA2, QUARTER_DOT
0391   3459               M     retlw ((QUARTER_DOT<<4)|LA2)
  0000000E                M idx SET idx+1
                      01339         PAUSE HEIGTH
0392   346F               M     retlw ((HEIGTH<<4)|0xf)
  0000000F                M idx SET idx+1
                      01340         ;4
                      01341         NOTE MI2, QUARTER
0393   3444               M     retlw ((QUARTER<<4)|MI2)
  00000010                M idx SET idx+1
                      01342         NOTE MI2, QUARTER
0394   3444               M     retlw ((QUARTER<<4)|MI2)
  00000011                M idx SET idx+1
                      01343         NOTE SOL2D, HEIGTH
0395   3468               M     retlw ((HEIGTH<<4)|SOL2D)
  00000012                M idx SET idx+1
                      01344         NOTE SOL2D, QUARTER_DOT
MPASM 5.76  /HOME/JACQUES/GITHUB/SPIDER_WEB/   12-19-2018  11:45:01         PAGE 45


LOC  OBJECT CODE     LINE SOURCE TEXT
  VALUE

0396   3458               M     retlw ((QUARTER_DOT<<4)|SOL2D)
  00000013                M idx SET idx+1
                      01345         ;5
                      01346         NOTE LA2, HALF
0397   3429               M     retlw ((HALF<<4)|LA2)
  00000014                M idx SET idx+1
                      01347         PAUSE QUARTER
0398   344F               M     retlw ((QUARTER<<4)|0xf)
  00000015                M idx SET idx+1
                      01348         NOTE MI2, QUARTER
0399   3444               M     retlw ((QUARTER<<4)|MI2)
  00000016                M idx SET idx+1
                      01349         ;6
                      01350         NOTE DO3, QUARTER
039A   344C               M     retlw ((QUARTER<<4)|DO3)
  00000017                M idx SET idx+1
                      01351         NOTE DO3, QUARTER
039B   344C               M     retlw ((QUARTER<<4)|DO3)
  00000018                M idx SET idx+1
                      01352         NOTE SI2, QUARTER
039C   344B               M     retlw ((QUARTER<<4)|SI2)
  00000019                M idx SET idx+1
                      01353         NOTE SI2, QUARTER
039D   344B               M     retlw ((QUARTER<<4)|SI2)
  0000001A                M idx SET idx+1
                      01354         ;7
                      01355         NOTE DO3, HEIGTH
039E   346C               M     retlw ((HEIGTH<<4)|DO3)
  0000001B                M idx SET idx+1
                      01356         NOTE DO3, QUARTER
039F   344C               M     retlw ((QUARTER<<4)|DO3)
  0000001C                M idx SET idx+1
                      01357         STROKE LEGATO
03A0   34E2               M     retlw STROKE_SWITCH|(LEGATO&0x3)
  0000001D                M idx SET idx+1
                      01358         NOTE LA2, HEIGTH
03A1   3469               M     retlw ((HEIGTH<<4)|LA2)
  0000001E                M idx SET idx+1
                      01359         STROKE NORMAL
03A2   34E0               M     retlw STROKE_SWITCH|(NORMAL&0x3)
  0000001F                M idx SET idx+1
                      01360         NOTE LA2, QUARTER_DOT
03A3   3459               M     retlw ((QUARTER_DOT<<4)|LA2)
  00000020                M idx SET idx+1
                      01361         PAUSE HEIGTH
03A4   346F               M     retlw ((HEIGTH<<4)|0xf)
  00000021                M idx SET idx+1
                      01362         ;8
                      01363         NOTE MI2, QUARTER
03A5   3444               M     retlw ((QUARTER<<4)|MI2)
  00000022                M idx SET idx+1
                      01364         NOTE MI2, QUARTER
03A6   3444               M     retlw ((QUARTER<<4)|MI2)
MPASM 5.76  /HOME/JACQUES/GITHUB/SPIDER_WEB/   12-19-2018  11:45:01         PAGE 46


LOC  OBJECT CODE     LINE SOURCE TEXT
  VALUE

  00000023                M idx SET idx+1
                      01365         NOTE SOL2D, HEIGTH
03A7   3468               M     retlw ((HEIGTH<<4)|SOL2D)
  00000024                M idx SET idx+1
                      01366         NOTE SOL2D, QUARTER_DOT
03A8   3458               M     retlw ((QUARTER_DOT<<4)|SOL2D)
  00000025                M idx SET idx+1
                      01367         ;9
                      01368         NOTE LA2, WHOLE
03A9   3409               M     retlw ((WHOLE<<4)|LA2)
  00000026                M idx SET idx+1
                      01369         ;10
                      01370         NOTE LA2, HEIGTH
03AA   3469               M     retlw ((HEIGTH<<4)|LA2)
  00000027                M idx SET idx+1
                      01371         STROKE LEGATO
03AB   34E2               M     retlw STROKE_SWITCH|(LEGATO&0x3)
  00000028                M idx SET idx+1
                      01372         NOTE LA2, QUARTER_DOT
03AC   3459               M     retlw ((QUARTER_DOT<<4)|LA2)
  00000029                M idx SET idx+1
                      01373         STROKE NORMAL
03AD   34E0               M     retlw STROKE_SWITCH|(NORMAL&0x3)
  0000002A                M idx SET idx+1
                      01374         NOTE LA2, HALF
03AE   3429               M     retlw ((HALF<<4)|LA2)
  0000002B                M idx SET idx+1
                      01375         ;11
                      01376         NOTE RE3, HEIGTH
03AF   346E               M     retlw ((HEIGTH<<4)|RE3)
  0000002C                M idx SET idx+1
                      01377         STROKE LEGATO
03B0   34E2               M     retlw STROKE_SWITCH|(LEGATO&0x3)
  0000002D                M idx SET idx+1
                      01378         NOTE RE3, QUARTER_DOT
03B1   345E               M     retlw ((QUARTER_DOT<<4)|RE3)
  0000002E                M idx SET idx+1
                      01379         STROKE NORMAL
03B2   34E0               M     retlw STROKE_SWITCH|(NORMAL&0x3)
  0000002F                M idx SET idx+1
                      01380         NOTE RE3, HALF
03B3   342E               M     retlw ((HALF<<4)|RE3)
  00000030                M idx SET idx+1
                      01381         ;12
                      01382         OCTAVE O3
03B4   34F1               M     retlw OCT_SWITCH|(O3&3)
  00000031                M idx SET idx+1
                      01383         NOTE MI2, HALF
03B5   3424               M     retlw ((HALF<<4)|MI2)
  00000032                M idx SET idx+1
                      01384         NOTE MI2, QUARTER_DOT
03B6   3454               M     retlw ((QUARTER_DOT<<4)|MI2)
  00000033                M idx SET idx+1
MPASM 5.76  /HOME/JACQUES/GITHUB/SPIDER_WEB/   12-19-2018  11:45:01         PAGE 47


LOC  OBJECT CODE     LINE SOURCE TEXT
  VALUE

                      01385         NOTE RE2, HEIGTH
03B7   3462               M     retlw ((HEIGTH<<4)|RE2)
  00000034                M idx SET idx+1
                      01386         ;13
                      01387         NOTE MI2, HEIGTH
03B8   3464               M     retlw ((HEIGTH<<4)|MI2)
  00000035                M idx SET idx+1
                      01388         NOTE MI2, QUARTER
03B9   3444               M     retlw ((QUARTER<<4)|MI2)
  00000036                M idx SET idx+1
                      01389         OCTAVE O2
03BA   34F0               M     retlw OCT_SWITCH|(O2&3)
  00000037                M idx SET idx+1
                      01390         NOTE RE3, HEIGTH
03BB   346E               M     retlw ((HEIGTH<<4)|RE3)
  00000038                M idx SET idx+1
                      01391         NOTE DO3, HEIGTH
03BC   346C               M     retlw ((HEIGTH<<4)|DO3)
  00000039                M idx SET idx+1
                      01392         NOTE LA2, QUARTER_DOT
03BD   3459               M     retlw ((QUARTER_DOT<<4)|LA2)
  0000003A                M idx SET idx+1
                      01393         ;14
                      01394         NOTE DO3, HEIGTH
03BE   346C               M     retlw ((HEIGTH<<4)|DO3)
  0000003B                M idx SET idx+1
                      01395         STROKE LEGATO
03BF   34E2               M     retlw STROKE_SWITCH|(LEGATO&0x3)
  0000003C                M idx SET idx+1
                      01396         NOTE LA2, QUARTER_DOT
03C0   3459               M     retlw ((QUARTER_DOT<<4)|LA2)
  0000003D                M idx SET idx+1
                      01397         STROKE NORMAL
03C1   34E0               M     retlw STROKE_SWITCH|(NORMAL&0x3)
  0000003E                M idx SET idx+1
                      01398         NOTE LA2, QUARTER
03C2   3449               M     retlw ((QUARTER<<4)|LA2)
  0000003F                M idx SET idx+1
                      01399         PAUSE QUARTER
03C3   344F               M     retlw ((QUARTER<<4)|0xf)
  00000040                M idx SET idx+1
                      01400         ;15
                      01401         NOTE DO3, HEIGTH
03C4   346C               M     retlw ((HEIGTH<<4)|DO3)
  00000041                M idx SET idx+1
                      01402         STROKE LEGATO
03C5   34E2               M     retlw STROKE_SWITCH|(LEGATO&0x3)
  00000042                M idx SET idx+1
                      01403         NOTE LA2, QUARTER_DOT
03C6   3459               M     retlw ((QUARTER_DOT<<4)|LA2)
  00000043                M idx SET idx+1
                      01404         STROKE NORMAL
03C7   34E0               M     retlw STROKE_SWITCH|(NORMAL&0x3)
MPASM 5.76  /HOME/JACQUES/GITHUB/SPIDER_WEB/   12-19-2018  11:45:01         PAGE 48


LOC  OBJECT CODE     LINE SOURCE TEXT
  VALUE

  00000044                M idx SET idx+1
                      01405         NOTE LA2, QUARTER_DOT
03C8   3459               M     retlw ((QUARTER_DOT<<4)|LA2)
  00000045                M idx SET idx+1
                      01406         NOTE MI2, HEIGTH
03C9   3464               M     retlw ((HEIGTH<<4)|MI2)
  00000046                M idx SET idx+1
                      01407         ;16
                      01408         NOTE MI2, QUARTER
03CA   3444               M     retlw ((QUARTER<<4)|MI2)
  00000047                M idx SET idx+1
                      01409         NOTE MI2, QUARTER
03CB   3444               M     retlw ((QUARTER<<4)|MI2)
  00000048                M idx SET idx+1
                      01410         NOTE SOL2D, HEIGTH
03CC   3468               M     retlw ((HEIGTH<<4)|SOL2D)
  00000049                M idx SET idx+1
                      01411         NOTE SOL2D, QUARTER_DOT
03CD   3458               M     retlw ((QUARTER_DOT<<4)|SOL2D)
  0000004A                M idx SET idx+1
                      01412         ;17
                      01413         NOTE LA2, HALF_DOT
03CE   3439               M     retlw ((HALF_DOT<<4)|LA2)
  0000004B                M idx SET idx+1
                      01414         PAUSE QUARTER
03CF   344F               M     retlw ((QUARTER<<4)|0xf)
  0000004C                M idx SET idx+1
                      01415         MELODY_END
03D0   34FF               M     retlw STAFF_END
                      01416         
                      01417 ; amazing grace
                      01418 ; REF: https://www.apprendrelaflute.com/amazing-grace-a-la-flute-a-bec  
                      01419         MELODY amazing_grace
  00000000                M idx SET 0
03D1                      M amazing_grace 
03D1   30??               M     movlw high (amazing_grace+7)
03D2   008A               M     movwf PCLATH
03D3   30??               M     movlw low (amazing_grace+7)
03D4   07??               M     addwf note_idx,W
03D5   1803               M     skpnc
Message[305]: Using default destination of 1 (file).
03D6   0A8A               M     incf PCLATH
03D7   0082               M     movwf PCL
                      01420         TEMPO 120
03D8   3417 3479          M     dt  low (ENV_CLK*60*4/120-1),   high (ENV_CLK*60*4/120-1)
  00000002                M idx SET idx+2
                      01421         OCTAVE O2
03DA   34F0               M     retlw OCT_SWITCH|(O2&3)
  00000003                M idx SET idx+1
                      01422         ;1
                      01423         NOTE SOL2, QUARTER
03DB   3447               M     retlw ((QUARTER<<4)|SOL2)
  00000004                M idx SET idx+1
MPASM 5.76  /HOME/JACQUES/GITHUB/SPIDER_WEB/   12-19-2018  11:45:01         PAGE 49


LOC  OBJECT CODE     LINE SOURCE TEXT
  VALUE

                      01424         ;2
                      01425         NOTE DO3, HALF
03DC   342C               M     retlw ((HALF<<4)|DO3)
  00000005                M idx SET idx+1
                      01426         OCTAVE O3
03DD   34F1               M     retlw OCT_SWITCH|(O3&3)
  00000006                M idx SET idx+1
                      01427         NOTE MI2, HEIGTH
03DE   3464               M     retlw ((HEIGTH<<4)|MI2)
  00000007                M idx SET idx+1
                      01428         NOTE DO2, HEIGTH
03DF   3460               M     retlw ((HEIGTH<<4)|DO2)
  00000008                M idx SET idx+1
                      01429         ;3
                      01430         NOTE MI2, HALF
03E0   3424               M     retlw ((HALF<<4)|MI2)
  00000009                M idx SET idx+1
                      01431         NOTE RE2, QUARTER
03E1   3442               M     retlw ((QUARTER<<4)|RE2)
  0000000A                M idx SET idx+1
                      01432         ;4
                      01433         NOTE DO2, HALF
03E2   3420               M     retlw ((HALF<<4)|DO2)
  0000000B                M idx SET idx+1
                      01434         OCTAVE O2
03E3   34F0               M     retlw OCT_SWITCH|(O2&3)
  0000000C                M idx SET idx+1
                      01435         NOTE LA2, QUARTER
03E4   3449               M     retlw ((QUARTER<<4)|LA2)
  0000000D                M idx SET idx+1
                      01436         ;5
                      01437         NOTE SOL2, HALF
03E5   3427               M     retlw ((HALF<<4)|SOL2)
  0000000E                M idx SET idx+1
                      01438         NOTE SOL2, QUARTER
03E6   3447               M     retlw ((QUARTER<<4)|SOL2)
  0000000F                M idx SET idx+1
                      01439         ;6
                      01440         NOTE DO3, HALF
03E7   342C               M     retlw ((HALF<<4)|DO3)
  00000010                M idx SET idx+1
                      01441         OCTAVE O3
03E8   34F1               M     retlw OCT_SWITCH|(O3&3)
  00000011                M idx SET idx+1
                      01442         NOTE MI2, HEIGTH
03E9   3464               M     retlw ((HEIGTH<<4)|MI2)
  00000012                M idx SET idx+1
                      01443         NOTE DO2, HEIGTH
03EA   3460               M     retlw ((HEIGTH<<4)|DO2)
  00000013                M idx SET idx+1
                      01444         ;7
                      01445         NOTE MI2, HALF
03EB   3424               M     retlw ((HALF<<4)|MI2)
MPASM 5.76  /HOME/JACQUES/GITHUB/SPIDER_WEB/   12-19-2018  11:45:01         PAGE 50


LOC  OBJECT CODE     LINE SOURCE TEXT
  VALUE

  00000014                M idx SET idx+1
                      01446         NOTE RE2, QUARTER
03EC   3442               M     retlw ((QUARTER<<4)|RE2)
  00000015                M idx SET idx+1
                      01447         ;8
                      01448         STROKE LEGATO
03ED   34E2               M     retlw STROKE_SWITCH|(LEGATO&0x3)
  00000016                M idx SET idx+1
                      01449         NOTE SOL2, HALF_DOT
03EE   3437               M     retlw ((HALF_DOT<<4)|SOL2)
  00000017                M idx SET idx+1
                      01450         ;9
                      01451         STROKE NORMAL
03EF   34E0               M     retlw STROKE_SWITCH|(NORMAL&0x3)
  00000018                M idx SET idx+1
                      01452         NOTE SOL2, HALF
03F0   3427               M     retlw ((HALF<<4)|SOL2)
  00000019                M idx SET idx+1
                      01453         NOTE MI2, QUARTER
03F1   3444               M     retlw ((QUARTER<<4)|MI2)
  0000001A                M idx SET idx+1
                      01454         ;10
                      01455         NOTE SOL2, QUARTER_DOT
03F2   3457               M     retlw ((QUARTER_DOT<<4)|SOL2)
  0000001B                M idx SET idx+1
                      01456         NOTE MI2, HEIGTH
03F3   3464               M     retlw ((HEIGTH<<4)|MI2)
  0000001C                M idx SET idx+1
                      01457         NOTE SOL2, HEIGTH
03F4   3467               M     retlw ((HEIGTH<<4)|SOL2)
  0000001D                M idx SET idx+1
                      01458         NOTE MI2, HEIGTH
03F5   3464               M     retlw ((HEIGTH<<4)|MI2)
  0000001E                M idx SET idx+1
                      01459         ;11
                      01460         OCTAVE O2
03F6   34F0               M     retlw OCT_SWITCH|(O2&3)
  0000001F                M idx SET idx+1
                      01461         NOTE DO3, HALF
03F7   342C               M     retlw ((HALF<<4)|DO3)
  00000020                M idx SET idx+1
                      01462         NOTE SOL2, QUARTER
03F8   3447               M     retlw ((QUARTER<<4)|SOL2)
  00000021                M idx SET idx+1
                      01463         ;12
                      01464         NOTE LA2, QUARTER_DOT
03F9   3459               M     retlw ((QUARTER_DOT<<4)|LA2)
  00000022                M idx SET idx+1
                      01465         NOTE DO3, HEIGTH
03FA   346C               M     retlw ((HEIGTH<<4)|DO3)
  00000023                M idx SET idx+1
                      01466         NOTE DO3, HEIGTH
03FB   346C               M     retlw ((HEIGTH<<4)|DO3)
MPASM 5.76  /HOME/JACQUES/GITHUB/SPIDER_WEB/   12-19-2018  11:45:01         PAGE 51


LOC  OBJECT CODE     LINE SOURCE TEXT
  VALUE

  00000024                M idx SET idx+1
                      01467         NOTE LA2, HEIGTH
03FC   3469               M     retlw ((HEIGTH<<4)|LA2)
  00000025                M idx SET idx+1
                      01468         ;13
                      01469         NOTE SOL2, HALF
03FD   3427               M     retlw ((HALF<<4)|SOL2)
  00000026                M idx SET idx+1
                      01470         NOTE SOL2, QUARTER
03FE   3447               M     retlw ((QUARTER<<4)|SOL2)
  00000027                M idx SET idx+1
                      01471         ;14
                      01472         NOTE DO3, HALF
03FF   342C               M     retlw ((HALF<<4)|DO3)
  00000028                M idx SET idx+1
                      01473         OCTAVE O3
0400   34F1               M     retlw OCT_SWITCH|(O3&3)
  00000029                M idx SET idx+1
                      01474         NOTE MI2, HEIGTH
0401   3464               M     retlw ((HEIGTH<<4)|MI2)
  0000002A                M idx SET idx+1
                      01475         NOTE DO2, HEIGTH
0402   3460               M     retlw ((HEIGTH<<4)|DO2)
  0000002B                M idx SET idx+1
                      01476         ;15
                      01477         NOTE MI2, HALF
0403   3424               M     retlw ((HALF<<4)|MI2)
  0000002C                M idx SET idx+1
                      01478         NOTE RE2, QUARTER
0404   3442               M     retlw ((QUARTER<<4)|RE2)
  0000002D                M idx SET idx+1
                      01479         STROKE LEGATO
0405   34E2               M     retlw STROKE_SWITCH|(LEGATO&0x3)
  0000002E                M idx SET idx+1
                      01480         OCTAVE O2
0406   34F0               M     retlw OCT_SWITCH|(O2&3)
  0000002F                M idx SET idx+1
                      01481         NOTE DO3, HALF_DOT
0407   343C               M     retlw ((HALF_DOT<<4)|DO3)
  00000030                M idx SET idx+1
                      01482         ;16
                      01483         STROKE NORMAL
0408   34E0               M     retlw STROKE_SWITCH|(NORMAL&0x3)
  00000031                M idx SET idx+1
                      01484         NOTE DO3, HALF_DOT
0409   343C               M     retlw ((HALF_DOT<<4)|DO3)
  00000032                M idx SET idx+1
                      01485         MELODY_END
040A   34FF               M     retlw STAFF_END
                      01486         
                      01487 ; greensleeves
                      01488 ; REF: https://www.apprendrelaflute.com/greensleeves-a-la-flute-a-bec
                      01489         MELODY greensleeves
MPASM 5.76  /HOME/JACQUES/GITHUB/SPIDER_WEB/   12-19-2018  11:45:01         PAGE 52


LOC  OBJECT CODE     LINE SOURCE TEXT
  VALUE

  00000000                M idx SET 0
040B                      M greensleeves 
040B   30??               M     movlw high (greensleeves+7)
040C   008A               M     movwf PCLATH
040D   30??               M     movlw low (greensleeves+7)
040E   07??               M     addwf note_idx,W
040F   1803               M     skpnc
Message[305]: Using default destination of 1 (file).
0410   0A8A               M     incf PCLATH
0411   0082               M     movwf PCL
                      01490         TEMPO 120
0412   3417 3479          M     dt  low (ENV_CLK*60*4/120-1),   high (ENV_CLK*60*4/120-1)
  00000002                M idx SET idx+2
                      01491         OCTAVE O2
0414   34F0               M     retlw OCT_SWITCH|(O2&3)
  00000003                M idx SET idx+1
                      01492         ;1
                      01493         PAUSE QUARTER
0415   344F               M     retlw ((QUARTER<<4)|0xf)
  00000004                M idx SET idx+1
                      01494         PAUSE QUARTER
0416   344F               M     retlw ((QUARTER<<4)|0xf)
  00000005                M idx SET idx+1
                      01495         NOTE LA2, QUARTER
0417   3449               M     retlw ((QUARTER<<4)|LA2)
  00000006                M idx SET idx+1
                      01496         ;2
                      01497         STROKE LEGATO
0418   34E2               M     retlw STROKE_SWITCH|(LEGATO&0x3)
  00000007                M idx SET idx+1
                      01498         NOTE DO3, HALF
0419   342C               M     retlw ((HALF<<4)|DO3)
  00000008                M idx SET idx+1
                      01499         STROKE NORMAL
041A   34E0               M     retlw STROKE_SWITCH|(NORMAL&0x3)
  00000009                M idx SET idx+1
                      01500         NOTE RE3, QUARTER
041B   344E               M     retlw ((QUARTER<<4)|RE3)
  0000000A                M idx SET idx+1
                      01501         ;3
                      01502         OCTAVE O3
041C   34F1               M     retlw OCT_SWITCH|(O3&3)
  0000000B                M idx SET idx+1
                      01503         NOTE MI2, QUARTER_DOT
041D   3454               M     retlw ((QUARTER_DOT<<4)|MI2)
  0000000C                M idx SET idx+1
                      01504         NOTE FA2, HEIGTH
041E   3465               M     retlw ((HEIGTH<<4)|FA2)
  0000000D                M idx SET idx+1
                      01505         NOTE MI2, QUARTER
041F   3444               M     retlw ((QUARTER<<4)|MI2)
  0000000E                M idx SET idx+1
                      01506         ;4
MPASM 5.76  /HOME/JACQUES/GITHUB/SPIDER_WEB/   12-19-2018  11:45:01         PAGE 53


LOC  OBJECT CODE     LINE SOURCE TEXT
  VALUE

                      01507         STROKE LEGATO
0420   34E2               M     retlw STROKE_SWITCH|(LEGATO&0x3)
  0000000F                M idx SET idx+1
                      01508         NOTE RE2, HALF
0421   3422               M     retlw ((HALF<<4)|RE2)
  00000010                M idx SET idx+1
                      01509         STROKE NORMAL
0422   34E0               M     retlw STROKE_SWITCH|(NORMAL&0x3)
  00000011                M idx SET idx+1
                      01510         OCTAVE O2
0423   34F0               M     retlw OCT_SWITCH|(O2&3)
  00000012                M idx SET idx+1
                      01511         NOTE SI2, QUARTER
0424   344B               M     retlw ((QUARTER<<4)|SI2)
  00000013                M idx SET idx+1
                      01512         ;5
                      01513         NOTE SOL2, QUARTER_DOT
0425   3457               M     retlw ((QUARTER_DOT<<4)|SOL2)
  00000014                M idx SET idx+1
                      01514         NOTE LA2, HEIGTH
0426   3469               M     retlw ((HEIGTH<<4)|LA2)
  00000015                M idx SET idx+1
                      01515         NOTE SI2, QUARTER
0427   344B               M     retlw ((QUARTER<<4)|SI2)
  00000016                M idx SET idx+1
                      01516         ;6
                      01517         STROKE LEGATO
0428   34E2               M     retlw STROKE_SWITCH|(LEGATO&0x3)
  00000017                M idx SET idx+1
                      01518         NOTE DO3, HALF
0429   342C               M     retlw ((HALF<<4)|DO3)
  00000018                M idx SET idx+1
                      01519         STROKE NORMAL
042A   34E0               M     retlw STROKE_SWITCH|(NORMAL&0x3)
  00000019                M idx SET idx+1
                      01520         NOTE LA2, QUARTER
042B   3449               M     retlw ((QUARTER<<4)|LA2)
  0000001A                M idx SET idx+1
                      01521         ;7
                      01522         NOTE LA2, QUARTER_DOT
042C   3459               M     retlw ((QUARTER_DOT<<4)|LA2)
  0000001B                M idx SET idx+1
                      01523         NOTE SOL2D, HEIGTH
042D   3468               M     retlw ((HEIGTH<<4)|SOL2D)
  0000001C                M idx SET idx+1
                      01524         NOTE LA2, QUARTER
042E   3449               M     retlw ((QUARTER<<4)|LA2)
  0000001D                M idx SET idx+1
                      01525         ;8
                      01526         NOTE SI2, HALF
042F   342B               M     retlw ((HALF<<4)|SI2)
  0000001E                M idx SET idx+1
                      01527         NOTE SOL2D, QUARTER
MPASM 5.76  /HOME/JACQUES/GITHUB/SPIDER_WEB/   12-19-2018  11:45:01         PAGE 54


LOC  OBJECT CODE     LINE SOURCE TEXT
  VALUE

0430   3448               M     retlw ((QUARTER<<4)|SOL2D)
  0000001F                M idx SET idx+1
                      01528         ;9
                      01529         NOTE MI2, HALF
0431   3424               M     retlw ((HALF<<4)|MI2)
  00000020                M idx SET idx+1
                      01530         NOTE LA2, QUARTER
0432   3449               M     retlw ((QUARTER<<4)|LA2)
  00000021                M idx SET idx+1
                      01531         ;10
                      01532         NOTE DO3, HALF
0433   342C               M     retlw ((HALF<<4)|DO3)
  00000022                M idx SET idx+1
                      01533         NOTE RE3, QUARTER
0434   344E               M     retlw ((QUARTER<<4)|RE3)
  00000023                M idx SET idx+1
                      01534         ;11
                      01535         OCTAVE O3
0435   34F1               M     retlw OCT_SWITCH|(O3&3)
  00000024                M idx SET idx+1
                      01536         NOTE MI2, QUARTER_DOT
0436   3454               M     retlw ((QUARTER_DOT<<4)|MI2)
  00000025                M idx SET idx+1
                      01537         NOTE FA2, HEIGTH
0437   3465               M     retlw ((HEIGTH<<4)|FA2)
  00000026                M idx SET idx+1
                      01538         NOTE MI2, QUARTER
0438   3444               M     retlw ((QUARTER<<4)|MI2)
  00000027                M idx SET idx+1
                      01539         ;12
                      01540         OCTAVE O2
0439   34F0               M     retlw OCT_SWITCH|(O2&3)
  00000028                M idx SET idx+1
                      01541         NOTE RE3, HALF
043A   342E               M     retlw ((HALF<<4)|RE3)
  00000029                M idx SET idx+1
                      01542         NOTE SI2, QUARTER
043B   344B               M     retlw ((QUARTER<<4)|SI2)
  0000002A                M idx SET idx+1
                      01543         ;13
                      01544         NOTE SOL2, QUARTER_DOT
043C   3457               M     retlw ((QUARTER_DOT<<4)|SOL2)
  0000002B                M idx SET idx+1
                      01545         NOTE LA2, HEIGTH
043D   3469               M     retlw ((HEIGTH<<4)|LA2)
  0000002C                M idx SET idx+1
                      01546         NOTE SI2, QUARTER
043E   344B               M     retlw ((QUARTER<<4)|SI2)
  0000002D                M idx SET idx+1
                      01547         ;14
                      01548         NOTE DO3, QUARTER_DOT
043F   345C               M     retlw ((QUARTER_DOT<<4)|DO3)
  0000002E                M idx SET idx+1
MPASM 5.76  /HOME/JACQUES/GITHUB/SPIDER_WEB/   12-19-2018  11:45:01         PAGE 55


LOC  OBJECT CODE     LINE SOURCE TEXT
  VALUE

                      01549         NOTE SI2, HEIGTH
0440   346B               M     retlw ((HEIGTH<<4)|SI2)
  0000002F                M idx SET idx+1
                      01550         NOTE LA2, QUARTER
0441   3449               M     retlw ((QUARTER<<4)|LA2)
  00000030                M idx SET idx+1
                      01551         ;15
                      01552         NOTE SOL2D, QUARTER_DOT
0442   3458               M     retlw ((QUARTER_DOT<<4)|SOL2D)
  00000031                M idx SET idx+1
                      01553         NOTE FA2D, HEIGTH
0443   3466               M     retlw ((HEIGTH<<4)|FA2D)
  00000032                M idx SET idx+1
                      01554         NOTE SOL2D, HEIGTH
0444   3468               M     retlw ((HEIGTH<<4)|SOL2D)
  00000033                M idx SET idx+1
                      01555         ;16
                      01556         NOTE LA2, HALF
0445   3429               M     retlw ((HALF<<4)|LA2)
  00000034                M idx SET idx+1
                      01557         NOTE LA2, QUARTER
0446   3449               M     retlw ((QUARTER<<4)|LA2)
  00000035                M idx SET idx+1
                      01558         ;17
                      01559         NOTE LA2, HALF_DOT
0447   3439               M     retlw ((HALF_DOT<<4)|LA2)
  00000036                M idx SET idx+1
                      01560         ;18
                      01561         OCTAVE O3
0448   34F1               M     retlw OCT_SWITCH|(O3&3)
  00000037                M idx SET idx+1
                      01562         NOTE SOL2, HALF_DOT
0449   3437               M     retlw ((HALF_DOT<<4)|SOL2)
  00000038                M idx SET idx+1
                      01563         ;19
                      01564         NOTE SOL2, QUARTER_DOT
044A   3457               M     retlw ((QUARTER_DOT<<4)|SOL2)
  00000039                M idx SET idx+1
                      01565         NOTE FA2D, HEIGTH
044B   3466               M     retlw ((HEIGTH<<4)|FA2D)
  0000003A                M idx SET idx+1
                      01566         NOTE MI2, QUARTER
044C   3444               M     retlw ((QUARTER<<4)|MI2)
  0000003B                M idx SET idx+1
                      01567         ;20
                      01568         OCTAVE O2
044D   34F0               M     retlw OCT_SWITCH|(O2&3)
  0000003C                M idx SET idx+1
                      01569         NOTE RE3, HALF
044E   342E               M     retlw ((HALF<<4)|RE3)
  0000003D                M idx SET idx+1
                      01570         NOTE SI2, QUARTER
044F   344B               M     retlw ((QUARTER<<4)|SI2)
MPASM 5.76  /HOME/JACQUES/GITHUB/SPIDER_WEB/   12-19-2018  11:45:01         PAGE 56


LOC  OBJECT CODE     LINE SOURCE TEXT
  VALUE

  0000003E                M idx SET idx+1
                      01571         ;21
                      01572         NOTE SOL2, QUARTER_DOT
0450   3457               M     retlw ((QUARTER_DOT<<4)|SOL2)
  0000003F                M idx SET idx+1
                      01573         NOTE LA2, HEIGTH
0451   3469               M     retlw ((HEIGTH<<4)|LA2)
  00000040                M idx SET idx+1
                      01574         NOTE SI2, QUARTER
0452   344B               M     retlw ((QUARTER<<4)|SI2)
  00000041                M idx SET idx+1
                      01575         ;22
                      01576         NOTE DO3, HALF
0453   342C               M     retlw ((HALF<<4)|DO3)
  00000042                M idx SET idx+1
                      01577         NOTE LA2, QUARTER
0454   3449               M     retlw ((QUARTER<<4)|LA2)
  00000043                M idx SET idx+1
                      01578         ;23
                      01579         NOTE LA2, QUARTER_DOT
0455   3459               M     retlw ((QUARTER_DOT<<4)|LA2)
  00000044                M idx SET idx+1
                      01580         NOTE SOL2D, HEIGTH
0456   3468               M     retlw ((HEIGTH<<4)|SOL2D)
  00000045                M idx SET idx+1
                      01581         NOTE LA2, QUARTER
0457   3449               M     retlw ((QUARTER<<4)|LA2)
  00000046                M idx SET idx+1
                      01582         ;24
                      01583         NOTE SI2, HALF
0458   342B               M     retlw ((HALF<<4)|SI2)
  00000047                M idx SET idx+1
                      01584         NOTE SOL2D, QUARTER
0459   3448               M     retlw ((QUARTER<<4)|SOL2D)
  00000048                M idx SET idx+1
                      01585         ;25
                      01586         NOTE MI2, HALF_DOT
045A   3434               M     retlw ((HALF_DOT<<4)|MI2)
  00000049                M idx SET idx+1
                      01587         ;26
                      01588         OCTAVE O3
045B   34F1               M     retlw OCT_SWITCH|(O3&3)
  0000004A                M idx SET idx+1
                      01589         NOTE SOL2, HALF_DOT
045C   3437               M     retlw ((HALF_DOT<<4)|SOL2)
  0000004B                M idx SET idx+1
                      01590         ;27
                      01591         NOTE SOL2, QUARTER_DOT
045D   3457               M     retlw ((QUARTER_DOT<<4)|SOL2)
  0000004C                M idx SET idx+1
                      01592         NOTE FA2D, HEIGTH
045E   3466               M     retlw ((HEIGTH<<4)|FA2D)
  0000004D                M idx SET idx+1
MPASM 5.76  /HOME/JACQUES/GITHUB/SPIDER_WEB/   12-19-2018  11:45:01         PAGE 57


LOC  OBJECT CODE     LINE SOURCE TEXT
  VALUE

                      01593         NOTE MI2, QUARTER
045F   3444               M     retlw ((QUARTER<<4)|MI2)
  0000004E                M idx SET idx+1
                      01594         ;28
                      01595         OCTAVE O2
0460   34F0               M     retlw OCT_SWITCH|(O2&3)
  0000004F                M idx SET idx+1
                      01596         NOTE RE3, HALF
0461   342E               M     retlw ((HALF<<4)|RE3)
  00000050                M idx SET idx+1
                      01597         NOTE SI2, QUARTER
0462   344B               M     retlw ((QUARTER<<4)|SI2)
  00000051                M idx SET idx+1
                      01598         ;29
                      01599         NOTE SOL2, QUARTER_DOT
0463   3457               M     retlw ((QUARTER_DOT<<4)|SOL2)
  00000052                M idx SET idx+1
                      01600         NOTE LA2, HEIGTH
0464   3469               M     retlw ((HEIGTH<<4)|LA2)
  00000053                M idx SET idx+1
                      01601         NOTE SI2, QUARTER
0465   344B               M     retlw ((QUARTER<<4)|SI2)
  00000054                M idx SET idx+1
                      01602         ;30
                      01603         NOTE DO3, QUARTER_DOT
0466   345C               M     retlw ((QUARTER_DOT<<4)|DO3)
  00000055                M idx SET idx+1
                      01604         NOTE SI2, HEIGTH
0467   346B               M     retlw ((HEIGTH<<4)|SI2)
  00000056                M idx SET idx+1
                      01605         NOTE LA2, QUARTER
0468   3449               M     retlw ((QUARTER<<4)|LA2)
  00000057                M idx SET idx+1
                      01606         ;31
                      01607         NOTE SOL2D, QUARTER_DOT
0469   3458               M     retlw ((QUARTER_DOT<<4)|SOL2D)
  00000058                M idx SET idx+1
                      01608         NOTE FA2D, HEIGTH
046A   3466               M     retlw ((HEIGTH<<4)|FA2D)
  00000059                M idx SET idx+1
                      01609         NOTE SOL2D, QUARTER
046B   3448               M     retlw ((QUARTER<<4)|SOL2D)
  0000005A                M idx SET idx+1
                      01610         ;32
                      01611         STROKE LEGATO
046C   34E2               M     retlw STROKE_SWITCH|(LEGATO&0x3)
  0000005B                M idx SET idx+1
                      01612         NOTE LA2, HALF_DOT
046D   3439               M     retlw ((HALF_DOT<<4)|LA2)
  0000005C                M idx SET idx+1
                      01613         ;33
                      01614         NOTE LA2, HALF
046E   3429               M     retlw ((HALF<<4)|LA2)
MPASM 5.76  /HOME/JACQUES/GITHUB/SPIDER_WEB/   12-19-2018  11:45:01         PAGE 58


LOC  OBJECT CODE     LINE SOURCE TEXT
  VALUE

  0000005D                M idx SET idx+1
                      01615         STROKE NORMAL
046F   34E0               M     retlw STROKE_SWITCH|(NORMAL&0x3)
  0000005E                M idx SET idx+1
                      01616         PAUSE QUARTER
0470   344F               M     retlw ((QUARTER<<4)|0xf)
  0000005F                M idx SET idx+1
                      01617         MELODY_END
0471   34FF               M     retlw STAFF_END
                      01618         
                      01619         
                      01620 ; Great Britain national anthem
                      01621 ; REF: https://www.apprendrelaflute.com/god-save-the-queen-a-la-flute-a-bec     
                      01622         MELODY god_save_the_queen
  00000000                M idx SET 0
0472                      M god_save_the_queen 
0472   30??               M     movlw high (god_save_the_queen+7)
0473   008A               M     movwf PCLATH
0474   30??               M     movlw low (god_save_the_queen+7)
0475   07??               M     addwf note_idx,W
0476   1803               M     skpnc
Message[305]: Using default destination of 1 (file).
0477   0A8A               M     incf PCLATH
0478   0082               M     movwf PCL
                      01623         TEMPO 120
0479   3417 3479          M     dt  low (ENV_CLK*60*4/120-1),   high (ENV_CLK*60*4/120-1)
  00000002                M idx SET idx+2
                      01624         OCTAVE O3
047B   34F1               M     retlw OCT_SWITCH|(O3&3)
  00000003                M idx SET idx+1
                      01625         ;1
                      01626         NOTE DO2, QUARTER
047C   3440               M     retlw ((QUARTER<<4)|DO2)
  00000004                M idx SET idx+1
                      01627         NOTE DO2, QUARTER
047D   3440               M     retlw ((QUARTER<<4)|DO2)
  00000005                M idx SET idx+1
                      01628         NOTE RE2, QUARTER
047E   3442               M     retlw ((QUARTER<<4)|RE2)
  00000006                M idx SET idx+1
                      01629         ;2
                      01630         OCTAVE O2
047F   34F0               M     retlw OCT_SWITCH|(O2&3)
  00000007                M idx SET idx+1
                      01631         NOTE SI2, QUARTER_DOT
0480   345B               M     retlw ((QUARTER_DOT<<4)|SI2)
  00000008                M idx SET idx+1
                      01632         NOTE DO3, HEIGTH
0481   346C               M     retlw ((HEIGTH<<4)|DO3)
  00000009                M idx SET idx+1
                      01633         NOTE RE3, QUARTER
0482   344E               M     retlw ((QUARTER<<4)|RE3)
  0000000A                M idx SET idx+1
MPASM 5.76  /HOME/JACQUES/GITHUB/SPIDER_WEB/   12-19-2018  11:45:01         PAGE 59


LOC  OBJECT CODE     LINE SOURCE TEXT
  VALUE

                      01634         ;3
                      01635         OCTAVE O3
0483   34F1               M     retlw OCT_SWITCH|(O3&3)
  0000000B                M idx SET idx+1
                      01636         NOTE MI2, QUARTER
0484   3444               M     retlw ((QUARTER<<4)|MI2)
  0000000C                M idx SET idx+1
                      01637         NOTE MI2, QUARTER
0485   3444               M     retlw ((QUARTER<<4)|MI2)
  0000000D                M idx SET idx+1
                      01638         NOTE FA2, QUARTER
0486   3445               M     retlw ((QUARTER<<4)|FA2)
  0000000E                M idx SET idx+1
                      01639         ;4
                      01640         NOTE MI2, QUARTER_DOT
0487   3454               M     retlw ((QUARTER_DOT<<4)|MI2)
  0000000F                M idx SET idx+1
                      01641         NOTE RE2, HEIGTH
0488   3462               M     retlw ((HEIGTH<<4)|RE2)
  00000010                M idx SET idx+1
                      01642         NOTE DO2, QUARTER
0489   3440               M     retlw ((QUARTER<<4)|DO2)
  00000011                M idx SET idx+1
                      01643         ;5
                      01644         OCTAVE O2
048A   34F0               M     retlw OCT_SWITCH|(O2&3)
  00000012                M idx SET idx+1
                      01645         NOTE RE3, QUARTER
048B   344E               M     retlw ((QUARTER<<4)|RE3)
  00000013                M idx SET idx+1
                      01646         NOTE DO3, QUARTER
048C   344C               M     retlw ((QUARTER<<4)|DO3)
  00000014                M idx SET idx+1
                      01647         NOTE SI2, QUARTER
048D   344B               M     retlw ((QUARTER<<4)|SI2)
  00000015                M idx SET idx+1
                      01648         ;6
                      01649         NOTE DO3, HALF_DOT
048E   343C               M     retlw ((HALF_DOT<<4)|DO3)
  00000016                M idx SET idx+1
                      01650         ;7
                      01651         OCTAVE O3
048F   34F1               M     retlw OCT_SWITCH|(O3&3)
  00000017                M idx SET idx+1
                      01652         NOTE SOL2, QUARTER
0490   3447               M     retlw ((QUARTER<<4)|SOL2)
  00000018                M idx SET idx+1
                      01653         NOTE SOL2, QUARTER
0491   3447               M     retlw ((QUARTER<<4)|SOL2)
  00000019                M idx SET idx+1
                      01654         NOTE SOL2, QUARTER
0492   3447               M     retlw ((QUARTER<<4)|SOL2)
  0000001A                M idx SET idx+1
MPASM 5.76  /HOME/JACQUES/GITHUB/SPIDER_WEB/   12-19-2018  11:45:01         PAGE 60


LOC  OBJECT CODE     LINE SOURCE TEXT
  VALUE

                      01655         ;8
                      01656         NOTE SOL2, QUARTER_DOT
0493   3457               M     retlw ((QUARTER_DOT<<4)|SOL2)
  0000001B                M idx SET idx+1
                      01657         NOTE FA2, HEIGTH
0494   3465               M     retlw ((HEIGTH<<4)|FA2)
  0000001C                M idx SET idx+1
                      01658         NOTE MI2, QUARTER
0495   3444               M     retlw ((QUARTER<<4)|MI2)
  0000001D                M idx SET idx+1
                      01659         ;9
                      01660         NOTE FA2, QUARTER
0496   3445               M     retlw ((QUARTER<<4)|FA2)
  0000001E                M idx SET idx+1
                      01661         NOTE FA2, QUARTER
0497   3445               M     retlw ((QUARTER<<4)|FA2)
  0000001F                M idx SET idx+1
                      01662         NOTE FA2, QUARTER
0498   3445               M     retlw ((QUARTER<<4)|FA2)
  00000020                M idx SET idx+1
                      01663         ;10
                      01664         NOTE FA2, QUARTER_DOT
0499   3455               M     retlw ((QUARTER_DOT<<4)|FA2)
  00000021                M idx SET idx+1
                      01665         NOTE MI2, HEIGTH
049A   3464               M     retlw ((HEIGTH<<4)|MI2)
  00000022                M idx SET idx+1
                      01666         NOTE RE2, QUARTER
049B   3442               M     retlw ((QUARTER<<4)|RE2)
  00000023                M idx SET idx+1
                      01667         ;11
                      01668         NOTE MI2, QUARTER
049C   3444               M     retlw ((QUARTER<<4)|MI2)
  00000024                M idx SET idx+1
                      01669         NOTE FA2, HEIGTH
049D   3465               M     retlw ((HEIGTH<<4)|FA2)
  00000025                M idx SET idx+1
                      01670         NOTE MI2, HEIGTH
049E   3464               M     retlw ((HEIGTH<<4)|MI2)
  00000026                M idx SET idx+1
                      01671         NOTE RE2, HEIGTH
049F   3462               M     retlw ((HEIGTH<<4)|RE2)
  00000027                M idx SET idx+1
                      01672         NOTE DO2, HEIGTH
04A0   3460               M     retlw ((HEIGTH<<4)|DO2)
  00000028                M idx SET idx+1
                      01673         ;12
                      01674         NOTE MI2, QUARTER_DOT
04A1   3454               M     retlw ((QUARTER_DOT<<4)|MI2)
  00000029                M idx SET idx+1
                      01675         NOTE FA2, HEIGTH
04A2   3465               M     retlw ((HEIGTH<<4)|FA2)
  0000002A                M idx SET idx+1
MPASM 5.76  /HOME/JACQUES/GITHUB/SPIDER_WEB/   12-19-2018  11:45:01         PAGE 61


LOC  OBJECT CODE     LINE SOURCE TEXT
  VALUE

                      01676         NOTE SOL2, QUARTER
04A3   3447               M     retlw ((QUARTER<<4)|SOL2)
  0000002B                M idx SET idx+1
                      01677         ;13
                      01678         NOTE LA2, HEIGTH
04A4   3469               M     retlw ((HEIGTH<<4)|LA2)
  0000002C                M idx SET idx+1
                      01679         NOTE FA2, HEIGTH
04A5   3465               M     retlw ((HEIGTH<<4)|FA2)
  0000002D                M idx SET idx+1
                      01680         NOTE MI2, QUARTER
04A6   3444               M     retlw ((QUARTER<<4)|MI2)
  0000002E                M idx SET idx+1
                      01681         NOTE RE2, QUARTER
04A7   3442               M     retlw ((QUARTER<<4)|RE2)
  0000002F                M idx SET idx+1
                      01682         ;13
                      01683         NOTE DO2, HALF_DOT
04A8   3430               M     retlw ((HALF_DOT<<4)|DO2)
  00000030                M idx SET idx+1
                      01684         
                      01685         MELODY_END
04A9   34FF               M     retlw STAFF_END
                      01686         
                      01687 ; melodia
                      01688 ; REF: https://www.apprendrelaflute.com/melodia-musique-du-film-jeux-interdits-flute-a-bec
                      01689         MELODY melodia
  00000000                M idx SET 0
04AA                      M melodia 
04AA   30??               M     movlw high (melodia+7)
04AB   008A               M     movwf PCLATH
04AC   30??               M     movlw low (melodia+7)
04AD   07??               M     addwf note_idx,W
04AE   1803               M     skpnc
Message[305]: Using default destination of 1 (file).
04AF   0A8A               M     incf PCLATH
04B0   0082               M     movwf PCL
                      01690         TEMPO 120
04B1   3417 3479          M     dt  low (ENV_CLK*60*4/120-1),   high (ENV_CLK*60*4/120-1)
  00000002                M idx SET idx+2
                      01691         OCTAVE O2
04B3   34F0               M     retlw OCT_SWITCH|(O2&3)
  00000003                M idx SET idx+1
                      01692         ;1
                      01693         NOTE LA2, QUARTER
04B4   3449               M     retlw ((QUARTER<<4)|LA2)
  00000004                M idx SET idx+1
                      01694         NOTE LA2, QUARTER
04B5   3449               M     retlw ((QUARTER<<4)|LA2)
  00000005                M idx SET idx+1
                      01695         NOTE LA2, QUARTER
04B6   3449               M     retlw ((QUARTER<<4)|LA2)
  00000006                M idx SET idx+1
MPASM 5.76  /HOME/JACQUES/GITHUB/SPIDER_WEB/   12-19-2018  11:45:01         PAGE 62


LOC  OBJECT CODE     LINE SOURCE TEXT
  VALUE

                      01696         ;2
                      01697         NOTE LA2, QUARTER
04B7   3449               M     retlw ((QUARTER<<4)|LA2)
  00000007                M idx SET idx+1
                      01698         NOTE SOL2, QUARTER
04B8   3447               M     retlw ((QUARTER<<4)|SOL2)
  00000008                M idx SET idx+1
                      01699         NOTE FA2, QUARTER
04B9   3445               M     retlw ((QUARTER<<4)|FA2)
  00000009                M idx SET idx+1
                      01700         ;3
                      01701         NOTE FA2, QUARTER
04BA   3445               M     retlw ((QUARTER<<4)|FA2)
  0000000A                M idx SET idx+1
                      01702         NOTE MI2, QUARTER
04BB   3444               M     retlw ((QUARTER<<4)|MI2)
  0000000B                M idx SET idx+1
                      01703         NOTE RE2, QUARTER
04BC   3442               M     retlw ((QUARTER<<4)|RE2)
  0000000C                M idx SET idx+1
                      01704         ;4
                      01705         NOTE RE2, QUARTER
04BD   3442               M     retlw ((QUARTER<<4)|RE2)
  0000000D                M idx SET idx+1
                      01706         NOTE FA2, QUARTER
04BE   3445               M     retlw ((QUARTER<<4)|FA2)
  0000000E                M idx SET idx+1
                      01707         NOTE LA2, QUARTER
04BF   3449               M     retlw ((QUARTER<<4)|LA2)
  0000000F                M idx SET idx+1
                      01708         ;5
                      01709         NOTE RE3, QUARTER
04C0   344E               M     retlw ((QUARTER<<4)|RE3)
  00000010                M idx SET idx+1
                      01710         NOTE RE3, QUARTER
04C1   344E               M     retlw ((QUARTER<<4)|RE3)
  00000011                M idx SET idx+1
                      01711         NOTE RE3, QUARTER
04C2   344E               M     retlw ((QUARTER<<4)|RE3)
  00000012                M idx SET idx+1
                      01712         ;6
                      01713         NOTE RE3, QUARTER
04C3   344E               M     retlw ((QUARTER<<4)|RE3)
  00000013                M idx SET idx+1
                      01714         NOTE DO3, QUARTER
04C4   344C               M     retlw ((QUARTER<<4)|DO3)
  00000014                M idx SET idx+1
                      01715         NOTE SI2B, QUARTER
04C5   344A               M     retlw ((QUARTER<<4)|SI2B)
  00000015                M idx SET idx+1
                      01716         ;7
                      01717         NOTE SI2B, QUARTER
04C6   344A               M     retlw ((QUARTER<<4)|SI2B)
MPASM 5.76  /HOME/JACQUES/GITHUB/SPIDER_WEB/   12-19-2018  11:45:01         PAGE 63


LOC  OBJECT CODE     LINE SOURCE TEXT
  VALUE

  00000016                M idx SET idx+1
                      01718         NOTE LA2, QUARTER
04C7   3449               M     retlw ((QUARTER<<4)|LA2)
  00000017                M idx SET idx+1
                      01719         NOTE SOL2, QUARTER
04C8   3447               M     retlw ((QUARTER<<4)|SOL2)
  00000018                M idx SET idx+1
                      01720         ;8
                      01721         NOTE SOL2, QUARTER
04C9   3447               M     retlw ((QUARTER<<4)|SOL2)
  00000019                M idx SET idx+1
                      01722         NOTE LA2, QUARTER
04CA   3449               M     retlw ((QUARTER<<4)|LA2)
  0000001A                M idx SET idx+1
                      01723         NOTE SI2B, QUARTER
04CB   344A               M     retlw ((QUARTER<<4)|SI2B)
  0000001B                M idx SET idx+1
                      01724         ;9
                      01725         NOTE LA2, QUARTER
04CC   3449               M     retlw ((QUARTER<<4)|LA2)
  0000001C                M idx SET idx+1
                      01726         NOTE SI2B, QUARTER
04CD   344A               M     retlw ((QUARTER<<4)|SI2B)
  0000001D                M idx SET idx+1
                      01727         NOTE LA2, QUARTER
04CE   3449               M     retlw ((QUARTER<<4)|LA2)
  0000001E                M idx SET idx+1
                      01728         ;10
                      01729         NOTE DO3D, QUARTER
04CF   344D               M     retlw ((QUARTER<<4)|DO3D)
  0000001F                M idx SET idx+1
                      01730         NOTE SI2B, QUARTER
04D0   344A               M     retlw ((QUARTER<<4)|SI2B)
  00000020                M idx SET idx+1
                      01731         NOTE LA2, QUARTER
04D1   3449               M     retlw ((QUARTER<<4)|LA2)
  00000021                M idx SET idx+1
                      01732         ;11
                      01733         NOTE LA2, QUARTER
04D2   3449               M     retlw ((QUARTER<<4)|LA2)
  00000022                M idx SET idx+1
                      01734         NOTE SOL2, QUARTER
04D3   3447               M     retlw ((QUARTER<<4)|SOL2)
  00000023                M idx SET idx+1
                      01735         NOTE FA2, QUARTER
04D4   3445               M     retlw ((QUARTER<<4)|FA2)
  00000024                M idx SET idx+1
                      01736         ;12
                      01737         NOTE FA2, QUARTER
04D5   3445               M     retlw ((QUARTER<<4)|FA2)
  00000025                M idx SET idx+1
                      01738         NOTE MI2, QUARTER
04D6   3444               M     retlw ((QUARTER<<4)|MI2)
MPASM 5.76  /HOME/JACQUES/GITHUB/SPIDER_WEB/   12-19-2018  11:45:01         PAGE 64


LOC  OBJECT CODE     LINE SOURCE TEXT
  VALUE

  00000026                M idx SET idx+1
                      01739         NOTE RE2, QUARTER
04D7   3442               M     retlw ((QUARTER<<4)|RE2)
  00000027                M idx SET idx+1
                      01740         ;13
                      01741         NOTE MI2, QUARTER
04D8   3444               M     retlw ((QUARTER<<4)|MI2)
  00000028                M idx SET idx+1
                      01742         NOTE MI2, QUARTER
04D9   3444               M     retlw ((QUARTER<<4)|MI2)
  00000029                M idx SET idx+1
                      01743         NOTE MI2, QUARTER
04DA   3444               M     retlw ((QUARTER<<4)|MI2)
  0000002A                M idx SET idx+1
                      01744         ;14
                      01745         NOTE MI2, QUARTER
04DB   3444               M     retlw ((QUARTER<<4)|MI2)
  0000002B                M idx SET idx+1
                      01746         NOTE FA2, QUARTER
04DC   3445               M     retlw ((QUARTER<<4)|FA2)
  0000002C                M idx SET idx+1
                      01747         NOTE MI2, QUARTER
04DD   3444               M     retlw ((QUARTER<<4)|MI2)
  0000002D                M idx SET idx+1
                      01748         ;15
                      01749         NOTE RE2, HALF_DOT
04DE   3432               M     retlw ((HALF_DOT<<4)|RE2)
  0000002E                M idx SET idx+1
                      01750         MELODY_END
04DF   34FF               M     retlw STAFF_END
                      01751         
                      01752         
                      01753 ; Le bon roi Dagobert
                      01754 ; REF: https://www.apprendrelaflute.com/le-bon-roi-dagobert-a-la-flute-a-bec
                      01755         MELODY roi_dagobert
  00000000                M idx SET 0
04E0                      M roi_dagobert 
04E0   30??               M     movlw high (roi_dagobert+7)
04E1   008A               M     movwf PCLATH
04E2   30??               M     movlw low (roi_dagobert+7)
04E3   07??               M     addwf note_idx,W
04E4   1803               M     skpnc
Message[305]: Using default destination of 1 (file).
04E5   0A8A               M     incf PCLATH
04E6   0082               M     movwf PCL
                      01756         TEMPO 140
04E7   34CA 3467          M     dt  low (ENV_CLK*60*4/140-1),   high (ENV_CLK*60*4/140-1)
  00000002                M idx SET idx+2
                      01757         OCTAVE O2
04E9   34F0               M     retlw OCT_SWITCH|(O2&3)
  00000003                M idx SET idx+1
                      01758         ;1
                      01759         PAUSE QUARTER
MPASM 5.76  /HOME/JACQUES/GITHUB/SPIDER_WEB/   12-19-2018  11:45:01         PAGE 65


LOC  OBJECT CODE     LINE SOURCE TEXT
  VALUE

04EA   344F               M     retlw ((QUARTER<<4)|0xf)
  00000004                M idx SET idx+1
                      01760         PAUSE QUARTER
04EB   344F               M     retlw ((QUARTER<<4)|0xf)
  00000005                M idx SET idx+1
                      01761         NOTE SI2, QUARTER
04EC   344B               M     retlw ((QUARTER<<4)|SI2)
  00000006                M idx SET idx+1
                      01762         ;2
                      01763         NOTE SI2, HALF
04ED   342B               M     retlw ((HALF<<4)|SI2)
  00000007                M idx SET idx+1
                      01764         NOTE LA2, QUARTER
04EE   3449               M     retlw ((QUARTER<<4)|LA2)
  00000008                M idx SET idx+1
                      01765         ;3
                      01766         NOTE LA2, HALF
04EF   3429               M     retlw ((HALF<<4)|LA2)
  00000009                M idx SET idx+1
                      01767         NOTE SOL2, QUARTER
04F0   3447               M     retlw ((QUARTER<<4)|SOL2)
  0000000A                M idx SET idx+1
                      01768         ;4
                      01769         NOTE SOL2, QUARTER_DOT
04F1   3457               M     retlw ((QUARTER_DOT<<4)|SOL2)
  0000000B                M idx SET idx+1
                      01770         ;5
                      01771         NOTE LA2, QUARTER_DOT
04F2   3459               M     retlw ((QUARTER_DOT<<4)|LA2)
  0000000C                M idx SET idx+1
                      01772         ;6
                      01773         NOTE SI2, QUARTER
04F3   344B               M     retlw ((QUARTER<<4)|SI2)
  0000000D                M idx SET idx+1
                      01774         NOTE DO3, QUARTER
04F4   344C               M     retlw ((QUARTER<<4)|DO3)
  0000000E                M idx SET idx+1
                      01775         NOTE SI2, QUARTER
04F5   344B               M     retlw ((QUARTER<<4)|SI2)
  0000000F                M idx SET idx+1
                      01776         ;7
                      01777         NOTE LA2, QUARTER
04F6   3449               M     retlw ((QUARTER<<4)|LA2)
  00000010                M idx SET idx+1
                      01778         NOTE SOL2, QUARTER
04F7   3447               M     retlw ((QUARTER<<4)|SOL2)
  00000011                M idx SET idx+1
                      01779         NOTE LA2, QUARTER
04F8   3449               M     retlw ((QUARTER<<4)|LA2)
  00000012                M idx SET idx+1
                      01780         ;8
                      01781         NOTE SOL2, QUARTER_DOT
04F9   3457               M     retlw ((QUARTER_DOT<<4)|SOL2)
MPASM 5.76  /HOME/JACQUES/GITHUB/SPIDER_WEB/   12-19-2018  11:45:01         PAGE 66


LOC  OBJECT CODE     LINE SOURCE TEXT
  VALUE

  00000013                M idx SET idx+1
                      01782         ;9
                      01783         PAUSE QUARTER
04FA   344F               M     retlw ((QUARTER<<4)|0xf)
  00000014                M idx SET idx+1
                      01784         NOTE SOL2, QUARTER
04FB   3447               M     retlw ((QUARTER<<4)|SOL2)
  00000015                M idx SET idx+1
                      01785         NOTE LA2, QUARTER
04FC   3449               M     retlw ((QUARTER<<4)|LA2)
  00000016                M idx SET idx+1
                      01786         ;10
                      01787         NOTE SI2, HALF
04FD   342B               M     retlw ((HALF<<4)|SI2)
  00000017                M idx SET idx+1
                      01788         NOTE SI2, QUARTER
04FE   344B               M     retlw ((QUARTER<<4)|SI2)
  00000018                M idx SET idx+1
                      01789         ;11
                      01790         NOTE SI2, QUARTER
04FF   344B               M     retlw ((QUARTER<<4)|SI2)
  00000019                M idx SET idx+1
                      01791         NOTE DO3, QUARTER
0500   344C               M     retlw ((QUARTER<<4)|DO3)
  0000001A                M idx SET idx+1
                      01792         NOTE RE3, QUARTER
0501   344E               M     retlw ((QUARTER<<4)|RE3)
  0000001B                M idx SET idx+1
                      01793         ;12
                      01794         NOTE LA2, HALF
0502   3429               M     retlw ((HALF<<4)|LA2)
  0000001C                M idx SET idx+1
                      01795         NOTE LA2, QUARTER
0503   3449               M     retlw ((QUARTER<<4)|LA2)
  0000001D                M idx SET idx+1
                      01796         ;13
                      01797         NOTE LA2, QUARTER
0504   3449               M     retlw ((QUARTER<<4)|LA2)
  0000001E                M idx SET idx+1
                      01798         NOTE SOL2, QUARTER
0505   3447               M     retlw ((QUARTER<<4)|SOL2)
  0000001F                M idx SET idx+1
                      01799         NOTE LA2, QUARTER
0506   3449               M     retlw ((QUARTER<<4)|LA2)
  00000020                M idx SET idx+1
                      01800         ;14
                      01801         NOTE SI2, HALF
0507   342B               M     retlw ((HALF<<4)|SI2)
  00000021                M idx SET idx+1
                      01802         NOTE SI2, QUARTER
0508   344B               M     retlw ((QUARTER<<4)|SI2)
  00000022                M idx SET idx+1
                      01803         ;15
MPASM 5.76  /HOME/JACQUES/GITHUB/SPIDER_WEB/   12-19-2018  11:45:01         PAGE 67


LOC  OBJECT CODE     LINE SOURCE TEXT
  VALUE

                      01804         NOTE SI2, QUARTER
0509   344B               M     retlw ((QUARTER<<4)|SI2)
  00000023                M idx SET idx+1
                      01805         NOTE DO3, QUARTER
050A   344C               M     retlw ((QUARTER<<4)|DO3)
  00000024                M idx SET idx+1
                      01806         NOTE RE3, QUARTER
050B   344E               M     retlw ((QUARTER<<4)|RE3)
  00000025                M idx SET idx+1
                      01807         ;16
                      01808         NOTE LA2, HALF
050C   3429               M     retlw ((HALF<<4)|LA2)
  00000026                M idx SET idx+1
                      01809         NOTE LA2, QUARTER
050D   3449               M     retlw ((QUARTER<<4)|LA2)
  00000027                M idx SET idx+1
                      01810         ;17
                      01811         NOTE LA2, HALF
050E   3429               M     retlw ((HALF<<4)|LA2)
  00000028                M idx SET idx+1
                      01812         NOTE LA2, QUARTER
050F   3449               M     retlw ((QUARTER<<4)|LA2)
  00000029                M idx SET idx+1
                      01813         ;18
                      01814         NOTE SI2, HALF
0510   342B               M     retlw ((HALF<<4)|SI2)
  0000002A                M idx SET idx+1
                      01815         NOTE LA2, QUARTER
0511   3449               M     retlw ((QUARTER<<4)|LA2)
  0000002B                M idx SET idx+1
                      01816         ;19
                      01817         NOTE LA2, HALF
0512   3429               M     retlw ((HALF<<4)|LA2)
  0000002C                M idx SET idx+1
                      01818         NOTE SOL2, QUARTER
0513   3447               M     retlw ((QUARTER<<4)|SOL2)
  0000002D                M idx SET idx+1
                      01819         ;20
                      01820         NOTE SOL2, QUARTER_DOT
0514   3457               M     retlw ((QUARTER_DOT<<4)|SOL2)
  0000002E                M idx SET idx+1
                      01821         ;21
                      01822         NOTE LA2, QUARTER_DOT
0515   3459               M     retlw ((QUARTER_DOT<<4)|LA2)
  0000002F                M idx SET idx+1
                      01823         ;22
                      01824         NOTE SI2, QUARTER
0516   344B               M     retlw ((QUARTER<<4)|SI2)
  00000030                M idx SET idx+1
                      01825         NOTE DO3, QUARTER
0517   344C               M     retlw ((QUARTER<<4)|DO3)
  00000031                M idx SET idx+1
                      01826         NOTE SI2, QUARTER
MPASM 5.76  /HOME/JACQUES/GITHUB/SPIDER_WEB/   12-19-2018  11:45:01         PAGE 68


LOC  OBJECT CODE     LINE SOURCE TEXT
  VALUE

0518   344B               M     retlw ((QUARTER<<4)|SI2)
  00000032                M idx SET idx+1
                      01827         ;23
                      01828         NOTE LA2, QUARTER
0519   3449               M     retlw ((QUARTER<<4)|LA2)
  00000033                M idx SET idx+1
                      01829         NOTE SOL2, QUARTER
051A   3447               M     retlw ((QUARTER<<4)|SOL2)
  00000034                M idx SET idx+1
                      01830         NOTE LA2, QUARTER
051B   3449               M     retlw ((QUARTER<<4)|LA2)
  00000035                M idx SET idx+1
                      01831         ;24
                      01832         NOTE SOL2, HALF_DOT
051C   3437               M     retlw ((HALF_DOT<<4)|SOL2)
  00000036                M idx SET idx+1
                      01833         MELODY_END
051D   34FF               M     retlw STAFF_END
                      01834         
                      01835 ; frère Jacques
                      01836 ; ref: https://www.apprendrelaflute.com/lecon-5-frere-jacques
                      01837         MELODY frere_jacques
  00000000                M idx SET 0
051E                      M frere_jacques 
051E   30??               M     movlw high (frere_jacques+7)
051F   008A               M     movwf PCLATH
0520   30??               M     movlw low (frere_jacques+7)
0521   07??               M     addwf note_idx,W
0522   1803               M     skpnc
Message[305]: Using default destination of 1 (file).
0523   0A8A               M     incf PCLATH
0524   0082               M     movwf PCL
                      01838         TEMPO 120
0525   3417 3479          M     dt  low (ENV_CLK*60*4/120-1),   high (ENV_CLK*60*4/120-1)
  00000002                M idx SET idx+2
                      01839         OCTAVE O2
0527   34F0               M     retlw OCT_SWITCH|(O2&3)
  00000003                M idx SET idx+1
                      01840         ;1
                      01841         NOTE FA2, QUARTER
0528   3445               M     retlw ((QUARTER<<4)|FA2)
  00000004                M idx SET idx+1
                      01842         NOTE SOL2, QUARTER
0529   3447               M     retlw ((QUARTER<<4)|SOL2)
  00000005                M idx SET idx+1
                      01843         NOTE LA2, QUARTER
052A   3449               M     retlw ((QUARTER<<4)|LA2)
  00000006                M idx SET idx+1
                      01844         NOTE FA2, QUARTER
052B   3445               M     retlw ((QUARTER<<4)|FA2)
  00000007                M idx SET idx+1
                      01845         ;2
                      01846         NOTE FA2, QUARTER
MPASM 5.76  /HOME/JACQUES/GITHUB/SPIDER_WEB/   12-19-2018  11:45:01         PAGE 69


LOC  OBJECT CODE     LINE SOURCE TEXT
  VALUE

052C   3445               M     retlw ((QUARTER<<4)|FA2)
  00000008                M idx SET idx+1
                      01847         NOTE SOL2, QUARTER
052D   3447               M     retlw ((QUARTER<<4)|SOL2)
  00000009                M idx SET idx+1
                      01848         NOTE LA2, QUARTER
052E   3449               M     retlw ((QUARTER<<4)|LA2)
  0000000A                M idx SET idx+1
                      01849         NOTE FA2, QUARTER
052F   3445               M     retlw ((QUARTER<<4)|FA2)
  0000000B                M idx SET idx+1
                      01850         ;3
                      01851         NOTE LA2, QUARTER
0530   3449               M     retlw ((QUARTER<<4)|LA2)
  0000000C                M idx SET idx+1
                      01852         NOTE SI2B, QUARTER
0531   344A               M     retlw ((QUARTER<<4)|SI2B)
  0000000D                M idx SET idx+1
                      01853         NOTE DO3, HALF
0532   342C               M     retlw ((HALF<<4)|DO3)
  0000000E                M idx SET idx+1
                      01854         ;4
                      01855         NOTE LA2, QUARTER
0533   3449               M     retlw ((QUARTER<<4)|LA2)
  0000000F                M idx SET idx+1
                      01856         NOTE SI2B, QUARTER
0534   344A               M     retlw ((QUARTER<<4)|SI2B)
  00000010                M idx SET idx+1
                      01857         NOTE DO3, HALF
0535   342C               M     retlw ((HALF<<4)|DO3)
  00000011                M idx SET idx+1
                      01858         ;5
                      01859         NOTE DO3,HEIGTH_DOT
0536   347C               M     retlw ((HEIGTH_DOT<<4)|DO3)
  00000012                M idx SET idx+1
                      01860         NOTE RE3,SIXTEENTH
0537   348E               M     retlw ((SIXTEENTH<<4)|RE3)
  00000013                M idx SET idx+1
                      01861         NOTE DO3, HEIGTH
0538   346C               M     retlw ((HEIGTH<<4)|DO3)
  00000014                M idx SET idx+1
                      01862         NOTE SI2B, HEIGTH
0539   346A               M     retlw ((HEIGTH<<4)|SI2B)
  00000015                M idx SET idx+1
                      01863         NOTE LA2, QUARTER
053A   3449               M     retlw ((QUARTER<<4)|LA2)
  00000016                M idx SET idx+1
                      01864         NOTE FA2, QUARTER
053B   3445               M     retlw ((QUARTER<<4)|FA2)
  00000017                M idx SET idx+1
                      01865         ;6
                      01866         NOTE DO3,HEIGTH_DOT
053C   347C               M     retlw ((HEIGTH_DOT<<4)|DO3)
MPASM 5.76  /HOME/JACQUES/GITHUB/SPIDER_WEB/   12-19-2018  11:45:01         PAGE 70


LOC  OBJECT CODE     LINE SOURCE TEXT
  VALUE

  00000018                M idx SET idx+1
                      01867         NOTE RE3,SIXTEENTH
053D   348E               M     retlw ((SIXTEENTH<<4)|RE3)
  00000019                M idx SET idx+1
                      01868         NOTE DO3, HEIGTH
053E   346C               M     retlw ((HEIGTH<<4)|DO3)
  0000001A                M idx SET idx+1
                      01869         NOTE SI2B, HEIGTH
053F   346A               M     retlw ((HEIGTH<<4)|SI2B)
  0000001B                M idx SET idx+1
                      01870         NOTE LA2, QUARTER
0540   3449               M     retlw ((QUARTER<<4)|LA2)
  0000001C                M idx SET idx+1
                      01871         NOTE FA2, QUARTER
0541   3445               M     retlw ((QUARTER<<4)|FA2)
  0000001D                M idx SET idx+1
                      01872         ;7
                      01873         NOTE FA2, QUARTER
0542   3445               M     retlw ((QUARTER<<4)|FA2)
  0000001E                M idx SET idx+1
                      01874         NOTE DO2, QUARTER
0543   3440               M     retlw ((QUARTER<<4)|DO2)
  0000001F                M idx SET idx+1
                      01875         NOTE FA2, HALF
0544   3425               M     retlw ((HALF<<4)|FA2)
  00000020                M idx SET idx+1
                      01876         ;8
                      01877         NOTE FA2, QUARTER
0545   3445               M     retlw ((QUARTER<<4)|FA2)
  00000021                M idx SET idx+1
                      01878         NOTE DO2, QUARTER
0546   3440               M     retlw ((QUARTER<<4)|DO2)
  00000022                M idx SET idx+1
                      01879         NOTE FA2, HALF
0547   3425               M     retlw ((HALF<<4)|FA2)
  00000023                M idx SET idx+1
                      01880         MELODY_END
0548   34FF               M     retlw STAFF_END
                      01881         
                      01882 ; ode to joy , Beethoven
                      01883 ; REF: https://www.apprendrelaflute.com/lecon-6-ode-a-la-joie   
                      01884     MELODY ode_joy
  00000000                M idx SET 0
0549                      M ode_joy 
0549   30??               M     movlw high (ode_joy+7)
054A   008A               M     movwf PCLATH
054B   30??               M     movlw low (ode_joy+7)
054C   07??               M     addwf note_idx,W
054D   1803               M     skpnc
Message[305]: Using default destination of 1 (file).
054E   0A8A               M     incf PCLATH
054F   0082               M     movwf PCL
                      01885     TEMPO 140
MPASM 5.76  /HOME/JACQUES/GITHUB/SPIDER_WEB/   12-19-2018  11:45:01         PAGE 71


LOC  OBJECT CODE     LINE SOURCE TEXT
  VALUE

0550   34CA 3467          M     dt  low (ENV_CLK*60*4/140-1),   high (ENV_CLK*60*4/140-1)
  00000002                M idx SET idx+2
                      01886     OCTAVE O2
0552   34F0               M     retlw OCT_SWITCH|(O2&3)
  00000003                M idx SET idx+1
                      01887     ;1
                      01888     NOTE A2,QUARTER
0553   3449               M     retlw ((QUARTER<<4)|A2)
  00000004                M idx SET idx+1
                      01889     NOTE A2,QUARTER
0554   3449               M     retlw ((QUARTER<<4)|A2)
  00000005                M idx SET idx+1
                      01890     NOTE B2f,QUARTER
0555   344A               M     retlw ((QUARTER<<4)|B2f)
  00000006                M idx SET idx+1
                      01891     OCTAVE O3
0556   34F1               M     retlw OCT_SWITCH|(O3&3)
  00000007                M idx SET idx+1
                      01892     NOTE C2, QUARTER
0557   3440               M     retlw ((QUARTER<<4)|C2)
  00000008                M idx SET idx+1
                      01893     ;2
                      01894     NOTE C2, QUARTER
0558   3440               M     retlw ((QUARTER<<4)|C2)
  00000009                M idx SET idx+1
                      01895     OCTAVE O2
0559   34F0               M     retlw OCT_SWITCH|(O2&3)
  0000000A                M idx SET idx+1
                      01896     NOTE B2f, QUARTER
055A   344A               M     retlw ((QUARTER<<4)|B2f)
  0000000B                M idx SET idx+1
                      01897     NOTE A2, QUARTER
055B   3449               M     retlw ((QUARTER<<4)|A2)
  0000000C                M idx SET idx+1
                      01898     NOTE G2, QUARTER
055C   3447               M     retlw ((QUARTER<<4)|G2)
  0000000D                M idx SET idx+1
                      01899     ;3
                      01900     NOTE F2, QUARTER
055D   3445               M     retlw ((QUARTER<<4)|F2)
  0000000E                M idx SET idx+1
                      01901     NOTE F2, QUARTER
055E   3445               M     retlw ((QUARTER<<4)|F2)
  0000000F                M idx SET idx+1
                      01902     NOTE G2, QUARTER
055F   3447               M     retlw ((QUARTER<<4)|G2)
  00000010                M idx SET idx+1
                      01903     NOTE A2, QUARTER
0560   3449               M     retlw ((QUARTER<<4)|A2)
  00000011                M idx SET idx+1
                      01904     ;4
                      01905     NOTE A2, QUARTER_DOT
0561   3459               M     retlw ((QUARTER_DOT<<4)|A2)
MPASM 5.76  /HOME/JACQUES/GITHUB/SPIDER_WEB/   12-19-2018  11:45:01         PAGE 72


LOC  OBJECT CODE     LINE SOURCE TEXT
  VALUE

  00000012                M idx SET idx+1
                      01906     NOTE G2, HEIGTH
0562   3467               M     retlw ((HEIGTH<<4)|G2)
  00000013                M idx SET idx+1
                      01907     NOTE G2, HALF
0563   3427               M     retlw ((HALF<<4)|G2)
  00000014                M idx SET idx+1
                      01908     ;5
                      01909     NOTE A2, QUARTER
0564   3449               M     retlw ((QUARTER<<4)|A2)
  00000015                M idx SET idx+1
                      01910     NOTE A2, QUARTER
0565   3449               M     retlw ((QUARTER<<4)|A2)
  00000016                M idx SET idx+1
                      01911     NOTE B2f, QUARTER
0566   344A               M     retlw ((QUARTER<<4)|B2f)
  00000017                M idx SET idx+1
                      01912     OCTAVE O3
0567   34F1               M     retlw OCT_SWITCH|(O3&3)
  00000018                M idx SET idx+1
                      01913     NOTE C2, QUARTER
0568   3440               M     retlw ((QUARTER<<4)|C2)
  00000019                M idx SET idx+1
                      01914     ;6
                      01915     NOTE C2, QUARTER
0569   3440               M     retlw ((QUARTER<<4)|C2)
  0000001A                M idx SET idx+1
                      01916     OCTAVE O2
056A   34F0               M     retlw OCT_SWITCH|(O2&3)
  0000001B                M idx SET idx+1
                      01917     NOTE B2f, QUARTER
056B   344A               M     retlw ((QUARTER<<4)|B2f)
  0000001C                M idx SET idx+1
                      01918     NOTE A2, QUARTER
056C   3449               M     retlw ((QUARTER<<4)|A2)
  0000001D                M idx SET idx+1
                      01919     NOTE G2, QUARTER
056D   3447               M     retlw ((QUARTER<<4)|G2)
  0000001E                M idx SET idx+1
                      01920     ;7
                      01921     NOTE F2, QUARTER
056E   3445               M     retlw ((QUARTER<<4)|F2)
  0000001F                M idx SET idx+1
                      01922     NOTE F2,QUARTER
056F   3445               M     retlw ((QUARTER<<4)|F2)
  00000020                M idx SET idx+1
                      01923     NOTE G2,QUARTER
0570   3447               M     retlw ((QUARTER<<4)|G2)
  00000021                M idx SET idx+1
                      01924     NOTE A2,QUARTER
0571   3449               M     retlw ((QUARTER<<4)|A2)
  00000022                M idx SET idx+1
                      01925     ;8
MPASM 5.76  /HOME/JACQUES/GITHUB/SPIDER_WEB/   12-19-2018  11:45:01         PAGE 73


LOC  OBJECT CODE     LINE SOURCE TEXT
  VALUE

                      01926     NOTE G2,QUARTER_DOT
0572   3457               M     retlw ((QUARTER_DOT<<4)|G2)
  00000023                M idx SET idx+1
                      01927     NOTE F2,HEIGTH
0573   3465               M     retlw ((HEIGTH<<4)|F2)
  00000024                M idx SET idx+1
                      01928     NOTE F2,HALF
0574   3425               M     retlw ((HALF<<4)|F2)
  00000025                M idx SET idx+1
                      01929     ;9
                      01930     NOTE G2,QUARTER
0575   3447               M     retlw ((QUARTER<<4)|G2)
  00000026                M idx SET idx+1
                      01931     NOTE G2,QUARTER
0576   3447               M     retlw ((QUARTER<<4)|G2)
  00000027                M idx SET idx+1
                      01932     NOTE A2,QUARTER
0577   3449               M     retlw ((QUARTER<<4)|A2)
  00000028                M idx SET idx+1
                      01933     NOTE F2,QUARTER
0578   3445               M     retlw ((QUARTER<<4)|F2)
  00000029                M idx SET idx+1
                      01934     ;10
                      01935     NOTE G2,QUARTER
0579   3447               M     retlw ((QUARTER<<4)|G2)
  0000002A                M idx SET idx+1
                      01936     STROKE LEGATO
057A   34E2               M     retlw STROKE_SWITCH|(LEGATO&0x3)
  0000002B                M idx SET idx+1
                      01937     NOTE A2,HEIGTH
057B   3469               M     retlw ((HEIGTH<<4)|A2)
  0000002C                M idx SET idx+1
                      01938     NOTE B2f,HEIGTH
057C   346A               M     retlw ((HEIGTH<<4)|B2f)
  0000002D                M idx SET idx+1
                      01939     STROKE NORMAL
057D   34E0               M     retlw STROKE_SWITCH|(NORMAL&0x3)
  0000002E                M idx SET idx+1
                      01940     NOTE A2,QUARTER
057E   3449               M     retlw ((QUARTER<<4)|A2)
  0000002F                M idx SET idx+1
                      01941     NOTE F2,QUARTER
057F   3445               M     retlw ((QUARTER<<4)|F2)
  00000030                M idx SET idx+1
                      01942     ;11
                      01943     NOTE G2,QUARTER
0580   3447               M     retlw ((QUARTER<<4)|G2)
  00000031                M idx SET idx+1
                      01944     STROKE LEGATO
0581   34E2               M     retlw STROKE_SWITCH|(LEGATO&0x3)
  00000032                M idx SET idx+1
                      01945     NOTE A2,HEIGTH
0582   3469               M     retlw ((HEIGTH<<4)|A2)
MPASM 5.76  /HOME/JACQUES/GITHUB/SPIDER_WEB/   12-19-2018  11:45:01         PAGE 74


LOC  OBJECT CODE     LINE SOURCE TEXT
  VALUE

  00000033                M idx SET idx+1
                      01946     NOTE B2f,HEIGTH
0583   346A               M     retlw ((HEIGTH<<4)|B2f)
  00000034                M idx SET idx+1
                      01947     STROKE NORMAL
0584   34E0               M     retlw STROKE_SWITCH|(NORMAL&0x3)
  00000035                M idx SET idx+1
                      01948     NOTE A2,QUARTER
0585   3449               M     retlw ((QUARTER<<4)|A2)
  00000036                M idx SET idx+1
                      01949     NOTE G2,QUARTER
0586   3447               M     retlw ((QUARTER<<4)|G2)
  00000037                M idx SET idx+1
                      01950     ;12
                      01951     NOTE F2,QUARTER
0587   3445               M     retlw ((QUARTER<<4)|F2)
  00000038                M idx SET idx+1
                      01952     NOTE G2,QUARTER
0588   3447               M     retlw ((QUARTER<<4)|G2)
  00000039                M idx SET idx+1
                      01953     NOTE C2,HALF
0589   3420               M     retlw ((HALF<<4)|C2)
  0000003A                M idx SET idx+1
                      01954     ;13
                      01955     NOTE A2, QUARTER
058A   3449               M     retlw ((QUARTER<<4)|A2)
  0000003B                M idx SET idx+1
                      01956     NOTE A2, QUARTER
058B   3449               M     retlw ((QUARTER<<4)|A2)
  0000003C                M idx SET idx+1
                      01957     NOTE B2f, QUARTER
058C   344A               M     retlw ((QUARTER<<4)|B2f)
  0000003D                M idx SET idx+1
                      01958     OCTAVE O3
058D   34F1               M     retlw OCT_SWITCH|(O3&3)
  0000003E                M idx SET idx+1
                      01959     NOTE C2, QUARTER
058E   3440               M     retlw ((QUARTER<<4)|C2)
  0000003F                M idx SET idx+1
                      01960     ;14
                      01961     NOTE C2, QUARTER
058F   3440               M     retlw ((QUARTER<<4)|C2)
  00000040                M idx SET idx+1
                      01962     OCTAVE O2
0590   34F0               M     retlw OCT_SWITCH|(O2&3)
  00000041                M idx SET idx+1
                      01963     NOTE B2f, QUARTER
0591   344A               M     retlw ((QUARTER<<4)|B2f)
  00000042                M idx SET idx+1
                      01964     NOTE A2, QUARTER
0592   3449               M     retlw ((QUARTER<<4)|A2)
  00000043                M idx SET idx+1
                      01965     NOTE G2, QUARTER
MPASM 5.76  /HOME/JACQUES/GITHUB/SPIDER_WEB/   12-19-2018  11:45:01         PAGE 75


LOC  OBJECT CODE     LINE SOURCE TEXT
  VALUE

0593   3447               M     retlw ((QUARTER<<4)|G2)
  00000044                M idx SET idx+1
                      01966     ;15
                      01967     NOTE F2, QUARTER
0594   3445               M     retlw ((QUARTER<<4)|F2)
  00000045                M idx SET idx+1
                      01968     NOTE F2, QUARTER
0595   3445               M     retlw ((QUARTER<<4)|F2)
  00000046                M idx SET idx+1
                      01969     NOTE G2, QUARTER
0596   3447               M     retlw ((QUARTER<<4)|G2)
  00000047                M idx SET idx+1
                      01970     NOTE A2, QUARTER
0597   3449               M     retlw ((QUARTER<<4)|A2)
  00000048                M idx SET idx+1
                      01971     ;16
                      01972     NOTE G2, QUARTER_DOT
0598   3457               M     retlw ((QUARTER_DOT<<4)|G2)
  00000049                M idx SET idx+1
                      01973     NOTE F2,HEIGTH
0599   3465               M     retlw ((HEIGTH<<4)|F2)
  0000004A                M idx SET idx+1
                      01974     NOTE F2, HALF
059A   3425               M     retlw ((HALF<<4)|F2)
  0000004B                M idx SET idx+1
                      01975     MELODY_END
059B   34FF               M     retlw STAFF_END
                      01976 
                      01977     ; tetris game theme
                      01978     ;REF: https://en.wikipedia.org/wiki/Korobeiniki
                      01979     MELODY korobeiniki
  00000000                M idx SET 0
059C                      M korobeiniki 
059C   30??               M     movlw high (korobeiniki+7)
059D   008A               M     movwf PCLATH
059E   30??               M     movlw low (korobeiniki+7)
059F   07??               M     addwf note_idx,W
05A0   1803               M     skpnc
Message[305]: Using default destination of 1 (file).
05A1   0A8A               M     incf PCLATH
05A2   0082               M     movwf PCL
                      01980     TEMPO 80
05A3   34A3 34B5          M     dt  low (ENV_CLK*60*4/80-1),    high (ENV_CLK*60*4/80-1)
  00000002                M idx SET idx+2
                      01981     ;1
                      01982     OCTAVE O4
05A5   34F2               M     retlw OCT_SWITCH|(O4&3)
  00000003                M idx SET idx+1
                      01983     NOTE MI2, QUARTER_DOT
05A6   3454               M     retlw ((QUARTER_DOT<<4)|MI2)
  00000004                M idx SET idx+1
                      01984     NOTE SOL2D, HEIGTH
05A7   3468               M     retlw ((HEIGTH<<4)|SOL2D)
MPASM 5.76  /HOME/JACQUES/GITHUB/SPIDER_WEB/   12-19-2018  11:45:01         PAGE 76


LOC  OBJECT CODE     LINE SOURCE TEXT
  VALUE

  00000005                M idx SET idx+1
                      01985     NOTE SI2, QUARTER
05A8   344B               M     retlw ((QUARTER<<4)|SI2)
  00000006                M idx SET idx+1
                      01986     NOTE SOL2, HEIGTH
05A9   3467               M     retlw ((HEIGTH<<4)|SOL2)
  00000007                M idx SET idx+1
                      01987     NOTE MI2, HEIGTH
05AA   3464               M     retlw ((HEIGTH<<4)|MI2)
  00000008                M idx SET idx+1
                      01988     ;2
                      01989     NOTE LA2, QUARTER_DOT
05AB   3459               M     retlw ((QUARTER_DOT<<4)|LA2)
  00000009                M idx SET idx+1
                      01990     NOTE DO3, HEIGTH
05AC   346C               M     retlw ((HEIGTH<<4)|DO3)
  0000000A                M idx SET idx+1
                      01991     OCTAVE O5
05AD   34F3               M     retlw OCT_SWITCH|(O5&3)
  0000000B                M idx SET idx+1
                      01992     NOTE MI2, QUARTER
05AE   3444               M     retlw ((QUARTER<<4)|MI2)
  0000000C                M idx SET idx+1
                      01993     OCTAVE O4
05AF   34F2               M     retlw OCT_SWITCH|(O4&3)
  0000000D                M idx SET idx+1
                      01994     NOTE RE3, HEIGTH
05B0   346E               M     retlw ((HEIGTH<<4)|RE3)
  0000000E                M idx SET idx+1
                      01995     NOTE DO3, HEIGTH
05B1   346C               M     retlw ((HEIGTH<<4)|DO3)
  0000000F                M idx SET idx+1
                      01996     ;3
                      01997     NOTE SI2, QUARTER_DOT
05B2   345B               M     retlw ((QUARTER_DOT<<4)|SI2)
  00000010                M idx SET idx+1
                      01998     NOTE DO3, HEIGTH
05B3   346C               M     retlw ((HEIGTH<<4)|DO3)
  00000011                M idx SET idx+1
                      01999     NOTE RE3, QUARTER
05B4   344E               M     retlw ((QUARTER<<4)|RE3)
  00000012                M idx SET idx+1
                      02000     OCTAVE O5
05B5   34F3               M     retlw OCT_SWITCH|(O5&3)
  00000013                M idx SET idx+1
                      02001     NOTE MI2, QUARTER
05B6   3444               M     retlw ((QUARTER<<4)|MI2)
  00000014                M idx SET idx+1
                      02002     OCTAVE O4
05B7   34F2               M     retlw OCT_SWITCH|(O4&3)
  00000015                M idx SET idx+1
                      02003     ;4
                      02004     NOTE DO3, QUARTER
MPASM 5.76  /HOME/JACQUES/GITHUB/SPIDER_WEB/   12-19-2018  11:45:01         PAGE 77


LOC  OBJECT CODE     LINE SOURCE TEXT
  VALUE

05B8   344C               M     retlw ((QUARTER<<4)|DO3)
  00000016                M idx SET idx+1
                      02005     NOTE LA2, QUARTER
05B9   3449               M     retlw ((QUARTER<<4)|LA2)
  00000017                M idx SET idx+1
                      02006     NOTE LA2, HALF
05BA   3429               M     retlw ((HALF<<4)|LA2)
  00000018                M idx SET idx+1
                      02007     ;5
                      02008     REPT_START
05BB   1500               M     bsf flags, F_REPT
05BC   34C0               M     retlw (REPT_BAR)
  0000001A                M idx SET idx+2
05BD   341A               M     retlw idx
  0000001B                M idx SET idx+1    
                      02009     OCTAVE O5
05BE   34F3               M     retlw OCT_SWITCH|(O5&3)
  0000001C                M idx SET idx+1
                      02010     NOTE FA2, QUARTER_DOT
05BF   3455               M     retlw ((QUARTER_DOT<<4)|FA2)
  0000001D                M idx SET idx+1
                      02011     NOTE SOL2, HEIGTH
05C0   3467               M     retlw ((HEIGTH<<4)|SOL2)
  0000001E                M idx SET idx+1
                      02012     NOTE LA2, QUARTER
05C1   3449               M     retlw ((QUARTER<<4)|LA2)
  0000001F                M idx SET idx+1
                      02013     NOTE SOL2, HEIGTH
05C2   3467               M     retlw ((HEIGTH<<4)|SOL2)
  00000020                M idx SET idx+1
                      02014     NOTE FA2, HEIGTH
05C3   3465               M     retlw ((HEIGTH<<4)|FA2)
  00000021                M idx SET idx+1
                      02015     ;6
                      02016     NOTE MI2, QUARTER_DOT
05C4   3454               M     retlw ((QUARTER_DOT<<4)|MI2)
  00000022                M idx SET idx+1
                      02017     NOTE FA2, HEIGTH
05C5   3465               M     retlw ((HEIGTH<<4)|FA2)
  00000023                M idx SET idx+1
                      02018     NOTE MI2, QUARTER
05C6   3444               M     retlw ((QUARTER<<4)|MI2)
  00000024                M idx SET idx+1
                      02019     NOTE RE2, HEIGTH
05C7   3462               M     retlw ((HEIGTH<<4)|RE2)
  00000025                M idx SET idx+1
                      02020     NOTE DO2, HEIGTH
05C8   3460               M     retlw ((HEIGTH<<4)|DO2)
  00000026                M idx SET idx+1
                      02021     ;7
                      02022     OCTAVE O4
05C9   34F2               M     retlw OCT_SWITCH|(O4&3)
  00000027                M idx SET idx+1
MPASM 5.76  /HOME/JACQUES/GITHUB/SPIDER_WEB/   12-19-2018  11:45:01         PAGE 78


LOC  OBJECT CODE     LINE SOURCE TEXT
  VALUE

                      02023     NOTE SI2, QUARTER_DOT
05CA   345B               M     retlw ((QUARTER_DOT<<4)|SI2)
  00000028                M idx SET idx+1
                      02024     NOTE DO3, HEIGTH
05CB   346C               M     retlw ((HEIGTH<<4)|DO3)
  00000029                M idx SET idx+1
                      02025     NOTE RE3, QUARTER
05CC   344E               M     retlw ((QUARTER<<4)|RE3)
  0000002A                M idx SET idx+1
                      02026     OCTAVE O5
05CD   34F3               M     retlw OCT_SWITCH|(O5&3)
  0000002B                M idx SET idx+1
                      02027     NOTE MI2, QUARTER
05CE   3444               M     retlw ((QUARTER<<4)|MI2)
  0000002C                M idx SET idx+1
                      02028     ;8
                      02029     OCTAVE O4
05CF   34F2               M     retlw OCT_SWITCH|(O4&3)
  0000002D                M idx SET idx+1
                      02030     NOTE DO3, QUARTER
05D0   344C               M     retlw ((QUARTER<<4)|DO3)
  0000002E                M idx SET idx+1
                      02031     NOTE LA2, QUARTER
05D1   3449               M     retlw ((QUARTER<<4)|LA2)
  0000002F                M idx SET idx+1
                      02032     NOTE LA2, HALF
05D2   3429               M     retlw ((HALF<<4)|LA2)
  00000030                M idx SET idx+1
                      02033     REPT_LOOP
05D3   34D0               M     retlw REPT_END
  00000031                M idx SET idx+1
                      02034     
                      02035     MELODY_END
05D4   34FF               M     retlw STAFF_END
                      02036 
                      02037 ; J'ai du bon tabac dans ma tabatière
                      02038 ; REF: https://www.apprendrelaflute.com/j-ai-du-bon-tabac-dans-ma-tabatiere    
                      02039     MELODY bon_tabac
  00000000                M idx SET 0
05D5                      M bon_tabac 
05D5   30??               M     movlw high (bon_tabac+7)
05D6   008A               M     movwf PCLATH
05D7   30??               M     movlw low (bon_tabac+7)
05D8   07??               M     addwf note_idx,W
05D9   1803               M     skpnc
Message[305]: Using default destination of 1 (file).
05DA   0A8A               M     incf PCLATH
05DB   0082               M     movwf PCL
                      02040     TEMPO 120
05DC   3417 3479          M     dt  low (ENV_CLK*60*4/120-1),   high (ENV_CLK*60*4/120-1)
  00000002                M idx SET idx+2
                      02041     NOTE SOL2,QUARTER
05DE   3447               M     retlw ((QUARTER<<4)|SOL2)
MPASM 5.76  /HOME/JACQUES/GITHUB/SPIDER_WEB/   12-19-2018  11:45:01         PAGE 79


LOC  OBJECT CODE     LINE SOURCE TEXT
  VALUE

  00000003                M idx SET idx+1
                      02042     NOTE LA2,QUARTER
05DF   3449               M     retlw ((QUARTER<<4)|LA2)
  00000004                M idx SET idx+1
                      02043     NOTE SI2,QUARTER
05E0   344B               M     retlw ((QUARTER<<4)|SI2)
  00000005                M idx SET idx+1
                      02044     NOTE SOL2,QUARTER
05E1   3447               M     retlw ((QUARTER<<4)|SOL2)
  00000006                M idx SET idx+1
                      02045     NOTE LA2, HALF
05E2   3429               M     retlw ((HALF<<4)|LA2)
  00000007                M idx SET idx+1
                      02046     NOTE LA2, QUARTER
05E3   3449               M     retlw ((QUARTER<<4)|LA2)
  00000008                M idx SET idx+1
                      02047     NOTE SI2, QUARTER
05E4   344B               M     retlw ((QUARTER<<4)|SI2)
  00000009                M idx SET idx+1
                      02048     NOTE DO3, HALF
05E5   342C               M     retlw ((HALF<<4)|DO3)
  0000000A                M idx SET idx+1
                      02049     NOTE DO3, HALF
05E6   342C               M     retlw ((HALF<<4)|DO3)
  0000000B                M idx SET idx+1
                      02050     NOTE SI2, HALF
05E7   342B               M     retlw ((HALF<<4)|SI2)
  0000000C                M idx SET idx+1
                      02051     NOTE SI2, HALF
05E8   342B               M     retlw ((HALF<<4)|SI2)
  0000000D                M idx SET idx+1
                      02052     NOTE SOL2, QUARTER
05E9   3447               M     retlw ((QUARTER<<4)|SOL2)
  0000000E                M idx SET idx+1
                      02053     NOTE LA2, QUARTER
05EA   3449               M     retlw ((QUARTER<<4)|LA2)
  0000000F                M idx SET idx+1
                      02054     NOTE SI2, QUARTER
05EB   344B               M     retlw ((QUARTER<<4)|SI2)
  00000010                M idx SET idx+1
                      02055     NOTE SOL2, QUARTER
05EC   3447               M     retlw ((QUARTER<<4)|SOL2)
  00000011                M idx SET idx+1
                      02056     NOTE LA2, HALF
05ED   3429               M     retlw ((HALF<<4)|LA2)
  00000012                M idx SET idx+1
                      02057     NOTE LA2, QUARTER
05EE   3449               M     retlw ((QUARTER<<4)|LA2)
  00000013                M idx SET idx+1
                      02058     NOTE SI2, QUARTER
05EF   344B               M     retlw ((QUARTER<<4)|SI2)
  00000014                M idx SET idx+1
                      02059     NOTE DO3, HALF
MPASM 5.76  /HOME/JACQUES/GITHUB/SPIDER_WEB/   12-19-2018  11:45:01         PAGE 80


LOC  OBJECT CODE     LINE SOURCE TEXT
  VALUE

05F0   342C               M     retlw ((HALF<<4)|DO3)
  00000015                M idx SET idx+1
                      02060     NOTE RE3, HALF
05F1   342E               M     retlw ((HALF<<4)|RE3)
  00000016                M idx SET idx+1
                      02061     NOTE SOL2, WHOLE
05F2   3407               M     retlw ((WHOLE<<4)|SOL2)
  00000017                M idx SET idx+1
                      02062     NOTE RE3, HALF
05F3   342E               M     retlw ((HALF<<4)|RE3)
  00000018                M idx SET idx+1
                      02063     NOTE RE3, QUARTER
05F4   344E               M     retlw ((QUARTER<<4)|RE3)
  00000019                M idx SET idx+1
                      02064     NOTE DO3, QUARTER
05F5   344C               M     retlw ((QUARTER<<4)|DO3)
  0000001A                M idx SET idx+1
                      02065     NOTE SI2,HALF
05F6   342B               M     retlw ((HALF<<4)|SI2)
  0000001B                M idx SET idx+1
                      02066     NOTE LA2,QUARTER
05F7   3449               M     retlw ((QUARTER<<4)|LA2)
  0000001C                M idx SET idx+1
                      02067     NOTE SI2,QUARTER
05F8   344B               M     retlw ((QUARTER<<4)|SI2)
  0000001D                M idx SET idx+1
                      02068     NOTE DO3, HALF
05F9   342C               M     retlw ((HALF<<4)|DO3)
  0000001E                M idx SET idx+1
                      02069     NOTE RE3, HALF
05FA   342E               M     retlw ((HALF<<4)|RE3)
  0000001F                M idx SET idx+1
                      02070     NOTE LA2, WHOLE
05FB   3409               M     retlw ((WHOLE<<4)|LA2)
  00000020                M idx SET idx+1
                      02071     MELODY_END
05FC   34FF               M     retlw STAFF_END
                      02072     
                      02073 ; joyeux aniversaire  
                      02074 ; REF: https://www.apprendrelaflute.com/lecon-7-joyeux-anniversaire    
                      02075     MELODY joyeux_anniv
  00000000                M idx SET 0
05FD                      M joyeux_anniv 
05FD   30??               M     movlw high (joyeux_anniv+7)
05FE   008A               M     movwf PCLATH
05FF   30??               M     movlw low (joyeux_anniv+7)
0600   07??               M     addwf note_idx,W
0601   1803               M     skpnc
Message[305]: Using default destination of 1 (file).
0602   0A8A               M     incf PCLATH
0603   0082               M     movwf PCL
                      02076     TEMPO 120
0604   3417 3479          M     dt  low (ENV_CLK*60*4/120-1),   high (ENV_CLK*60*4/120-1)
MPASM 5.76  /HOME/JACQUES/GITHUB/SPIDER_WEB/   12-19-2018  11:45:01         PAGE 81


LOC  OBJECT CODE     LINE SOURCE TEXT
  VALUE

  00000002                M idx SET idx+2
                      02077     NOTE DO2,HEIGTH_DOT
0606   3470               M     retlw ((HEIGTH_DOT<<4)|DO2)
  00000003                M idx SET idx+1
                      02078     NOTE DO2,SIXTEENTH
0607   3480               M     retlw ((SIXTEENTH<<4)|DO2)
  00000004                M idx SET idx+1
                      02079     NOTE RE2,QUARTER
0608   3442               M     retlw ((QUARTER<<4)|RE2)
  00000005                M idx SET idx+1
                      02080     NOTE DO2,QUARTER
0609   3440               M     retlw ((QUARTER<<4)|DO2)
  00000006                M idx SET idx+1
                      02081     NOTE FA2,QUARTER
060A   3445               M     retlw ((QUARTER<<4)|FA2)
  00000007                M idx SET idx+1
                      02082     NOTE MI2,HALF
060B   3424               M     retlw ((HALF<<4)|MI2)
  00000008                M idx SET idx+1
                      02083     NOTE DO2,HEIGTH_DOT
060C   3470               M     retlw ((HEIGTH_DOT<<4)|DO2)
  00000009                M idx SET idx+1
                      02084     NOTE DO2,SIXTEENTH
060D   3480               M     retlw ((SIXTEENTH<<4)|DO2)
  0000000A                M idx SET idx+1
                      02085     NOTE RE2,QUARTER
060E   3442               M     retlw ((QUARTER<<4)|RE2)
  0000000B                M idx SET idx+1
                      02086     NOTE DO2,QUARTER
060F   3440               M     retlw ((QUARTER<<4)|DO2)
  0000000C                M idx SET idx+1
                      02087     NOTE SOL2,QUARTER
0610   3447               M     retlw ((QUARTER<<4)|SOL2)
  0000000D                M idx SET idx+1
                      02088     NOTE FA2,HALF
0611   3425               M     retlw ((HALF<<4)|FA2)
  0000000E                M idx SET idx+1
                      02089     NOTE DO2,HEIGTH_DOT
0612   3470               M     retlw ((HEIGTH_DOT<<4)|DO2)
  0000000F                M idx SET idx+1
                      02090     NOTE DO2,SIXTEENTH
0613   3480               M     retlw ((SIXTEENTH<<4)|DO2)
  00000010                M idx SET idx+1
                      02091     NOTE DO3,QUARTER
0614   344C               M     retlw ((QUARTER<<4)|DO3)
  00000011                M idx SET idx+1
                      02092     NOTE LA2,QUARTER
0615   3449               M     retlw ((QUARTER<<4)|LA2)
  00000012                M idx SET idx+1
                      02093     NOTE FA2,QUARTER
0616   3445               M     retlw ((QUARTER<<4)|FA2)
  00000013                M idx SET idx+1
                      02094     NOTE MI2,QUARTER
MPASM 5.76  /HOME/JACQUES/GITHUB/SPIDER_WEB/   12-19-2018  11:45:01         PAGE 82


LOC  OBJECT CODE     LINE SOURCE TEXT
  VALUE

0617   3444               M     retlw ((QUARTER<<4)|MI2)
  00000014                M idx SET idx+1
                      02095     NOTE RE2,QUARTER
0618   3442               M     retlw ((QUARTER<<4)|RE2)
  00000015                M idx SET idx+1
                      02096     NOTE SI2B,HEIGTH_DOT
0619   347A               M     retlw ((HEIGTH_DOT<<4)|SI2B)
  00000016                M idx SET idx+1
                      02097     NOTE SI2B,SIXTEENTH
061A   348A               M     retlw ((SIXTEENTH<<4)|SI2B)
  00000017                M idx SET idx+1
                      02098     NOTE LA2,QUARTER
061B   3449               M     retlw ((QUARTER<<4)|LA2)
  00000018                M idx SET idx+1
                      02099     NOTE FA2,QUARTER
061C   3445               M     retlw ((QUARTER<<4)|FA2)
  00000019                M idx SET idx+1
                      02100     NOTE SOL2,QUARTER
061D   3447               M     retlw ((QUARTER<<4)|SOL2)
  0000001A                M idx SET idx+1
                      02101     NOTE FA2,HALF
061E   3425               M     retlw ((HALF<<4)|FA2)
  0000001B                M idx SET idx+1
                      02102     MELODY_END
061F   34FF               M     retlw STAFF_END
                      02103  
                      02104 ; mon beau sapin
                      02105 ; REF: https://www.apprendrelaflute.com/mon-beau-sapin-a-la-flute-a-bec    
                      02106     MELODY beau_sapin
  00000000                M idx SET 0
0620                      M beau_sapin 
0620   30??               M     movlw high (beau_sapin+7)
0621   008A               M     movwf PCLATH
0622   30??               M     movlw low (beau_sapin+7)
0623   07??               M     addwf note_idx,W
0624   1803               M     skpnc
Message[305]: Using default destination of 1 (file).
0625   0A8A               M     incf PCLATH
0626   0082               M     movwf PCL
                      02107     TEMPO 80
0627   34A3 34B5          M     dt  low (ENV_CLK*60*4/80-1),    high (ENV_CLK*60*4/80-1)
  00000002                M idx SET idx+2
                      02108     NOTE DO2,QUARTER
0629   3440               M     retlw ((QUARTER<<4)|DO2)
  00000003                M idx SET idx+1
                      02109     NOTE FA2,HEIGTH_DOT
062A   3475               M     retlw ((HEIGTH_DOT<<4)|FA2)
  00000004                M idx SET idx+1
                      02110     NOTE FA2, SIXTEENTH
062B   3485               M     retlw ((SIXTEENTH<<4)|FA2)
  00000005                M idx SET idx+1
                      02111     NOTE FA2, QUARTER
062C   3445               M     retlw ((QUARTER<<4)|FA2)
MPASM 5.76  /HOME/JACQUES/GITHUB/SPIDER_WEB/   12-19-2018  11:45:01         PAGE 83


LOC  OBJECT CODE     LINE SOURCE TEXT
  VALUE

  00000006                M idx SET idx+1
                      02112     NOTE SOL2, QUARTER
062D   3447               M     retlw ((QUARTER<<4)|SOL2)
  00000007                M idx SET idx+1
                      02113     NOTE LA2, HEIGTH_DOT
062E   3479               M     retlw ((HEIGTH_DOT<<4)|LA2)
  00000008                M idx SET idx+1
                      02114     NOTE LA2,SIXTEENTH
062F   3489               M     retlw ((SIXTEENTH<<4)|LA2)
  00000009                M idx SET idx+1
                      02115     NOTE LA2,QUARTER_DOT
0630   3459               M     retlw ((QUARTER_DOT<<4)|LA2)
  0000000A                M idx SET idx+1
                      02116     NOTE LA2,HEIGTH
0631   3469               M     retlw ((HEIGTH<<4)|LA2)
  0000000B                M idx SET idx+1
                      02117     NOTE SOL2,HEIGTH
0632   3467               M     retlw ((HEIGTH<<4)|SOL2)
  0000000C                M idx SET idx+1
                      02118     NOTE LA2,HEIGTH
0633   3469               M     retlw ((HEIGTH<<4)|LA2)
  0000000D                M idx SET idx+1
                      02119     NOTE SI2B,QUARTER
0634   344A               M     retlw ((QUARTER<<4)|SI2B)
  0000000E                M idx SET idx+1
                      02120     NOTE MI2,QUARTER
0635   3444               M     retlw ((QUARTER<<4)|MI2)
  0000000F                M idx SET idx+1
                      02121     NOTE SOL2,QUARTER
0636   3447               M     retlw ((QUARTER<<4)|SOL2)
  00000010                M idx SET idx+1
                      02122     NOTE FA2,QUARTER
0637   3445               M     retlw ((QUARTER<<4)|FA2)
  00000011                M idx SET idx+1
                      02123     PAUSE HEIGTH
0638   346F               M     retlw ((HEIGTH<<4)|0xf)
  00000012                M idx SET idx+1
                      02124     NOTE DO3,HEIGTH
0639   346C               M     retlw ((HEIGTH<<4)|DO3)
  00000013                M idx SET idx+1
                      02125     NOTE DO3,HEIGTH
063A   346C               M     retlw ((HEIGTH<<4)|DO3)
  00000014                M idx SET idx+1
                      02126     NOTE LA2,HEIGTH
063B   3469               M     retlw ((HEIGTH<<4)|LA2)
  00000015                M idx SET idx+1
                      02127     NOTE RE3,QUARTER_DOT
063C   345E               M     retlw ((QUARTER_DOT<<4)|RE3)
  00000016                M idx SET idx+1
                      02128     NOTE DO3,QUARTER
063D   344C               M     retlw ((QUARTER<<4)|DO3)
  00000017                M idx SET idx+1
                      02129     NOTE DO3,QUARTER
MPASM 5.76  /HOME/JACQUES/GITHUB/SPIDER_WEB/   12-19-2018  11:45:01         PAGE 84


LOC  OBJECT CODE     LINE SOURCE TEXT
  VALUE

063E   344C               M     retlw ((QUARTER<<4)|DO3)
  00000018                M idx SET idx+1
                      02130     NOTE SI2B,HEIGTH
063F   346A               M     retlw ((HEIGTH<<4)|SI2B)
  00000019                M idx SET idx+1
                      02131     NOTE SI2B,QUARTER_DOT
0640   345A               M     retlw ((QUARTER_DOT<<4)|SI2B)
  0000001A                M idx SET idx+1
                      02132     NOTE SI2B,HEIGTH
0641   346A               M     retlw ((HEIGTH<<4)|SI2B)
  0000001B                M idx SET idx+1
                      02133     NOTE SI2B,HEIGTH
0642   346A               M     retlw ((HEIGTH<<4)|SI2B)
  0000001C                M idx SET idx+1
                      02134     NOTE SOL2,HEIGTH
0643   3467               M     retlw ((HEIGTH<<4)|SOL2)
  0000001D                M idx SET idx+1
                      02135     NOTE DO3,QUARTER_DOT
0644   345C               M     retlw ((QUARTER_DOT<<4)|DO3)
  0000001E                M idx SET idx+1
                      02136     NOTE SI2B,HEIGTH
0645   346A               M     retlw ((HEIGTH<<4)|SI2B)
  0000001F                M idx SET idx+1
                      02137     NOTE SI2B,HEIGTH
0646   346A               M     retlw ((HEIGTH<<4)|SI2B)
  00000020                M idx SET idx+1
                      02138     NOTE LA2, HEIGTH
0647   3469               M     retlw ((HEIGTH<<4)|LA2)
  00000021                M idx SET idx+1
                      02139     NOTE LA2, QUARTER
0648   3449               M     retlw ((QUARTER<<4)|LA2)
  00000022                M idx SET idx+1
                      02140     NOTE DO2, QUARTER
0649   3440               M     retlw ((QUARTER<<4)|DO2)
  00000023                M idx SET idx+1
                      02141     NOTE FA2,HEIGTH_DOT
064A   3475               M     retlw ((HEIGTH_DOT<<4)|FA2)
  00000024                M idx SET idx+1
                      02142     NOTE FA2,SIXTEENTH
064B   3485               M     retlw ((SIXTEENTH<<4)|FA2)
  00000025                M idx SET idx+1
                      02143     NOTE FA2,QUARTER
064C   3445               M     retlw ((QUARTER<<4)|FA2)
  00000026                M idx SET idx+1
                      02144     NOTE SOL2,QUARTER
064D   3447               M     retlw ((QUARTER<<4)|SOL2)
  00000027                M idx SET idx+1
                      02145     NOTE LA2,HEIGTH_DOT
064E   3479               M     retlw ((HEIGTH_DOT<<4)|LA2)
  00000028                M idx SET idx+1
                      02146     NOTE LA2,SIXTEENTH
064F   3489               M     retlw ((SIXTEENTH<<4)|LA2)
  00000029                M idx SET idx+1
MPASM 5.76  /HOME/JACQUES/GITHUB/SPIDER_WEB/   12-19-2018  11:45:01         PAGE 85


LOC  OBJECT CODE     LINE SOURCE TEXT
  VALUE

                      02147     NOTE LA2,QUARTER_DOT
0650   3459               M     retlw ((QUARTER_DOT<<4)|LA2)
  0000002A                M idx SET idx+1
                      02148     NOTE LA2,HEIGTH
0651   3469               M     retlw ((HEIGTH<<4)|LA2)
  0000002B                M idx SET idx+1
                      02149     NOTE SOL2,HEIGTH
0652   3467               M     retlw ((HEIGTH<<4)|SOL2)
  0000002C                M idx SET idx+1
                      02150     NOTE LA2,HEIGTH
0653   3469               M     retlw ((HEIGTH<<4)|LA2)
  0000002D                M idx SET idx+1
                      02151     NOTE SI2B,QUARTER
0654   344A               M     retlw ((QUARTER<<4)|SI2B)
  0000002E                M idx SET idx+1
                      02152     NOTE MI2,QUARTER
0655   3444               M     retlw ((QUARTER<<4)|MI2)
  0000002F                M idx SET idx+1
                      02153     NOTE SOL2,QUARTER
0656   3447               M     retlw ((QUARTER<<4)|SOL2)
  00000030                M idx SET idx+1
                      02154     NOTE FA2,HALF
0657   3425               M     retlw ((HALF<<4)|FA2)
  00000031                M idx SET idx+1
                      02155     MELODY_END
0658   34FF               M     retlw STAFF_END
                      02156 
                      02157 ; gingle bell
                      02158 ; REF: https://www.apprendrelaflute.com/jingle-bells-a-la-flute-a-bec
                      02159     MELODY jingle_bell
  00000000                M idx SET 0
0659                      M jingle_bell 
0659   30??               M     movlw high (jingle_bell+7)
065A   008A               M     movwf PCLATH
065B   30??               M     movlw low (jingle_bell+7)
065C   07??               M     addwf note_idx,W
065D   1803               M     skpnc
Message[305]: Using default destination of 1 (file).
065E   0A8A               M     incf PCLATH
065F   0082               M     movwf PCL
                      02160     TEMPO 150
0660   34DF 3460          M     dt  low (ENV_CLK*60*4/150-1),   high (ENV_CLK*60*4/150-1)
  00000002                M idx SET idx+2
                      02161     OCTAVE O4
0662   34F2               M     retlw OCT_SWITCH|(O4&3)
  00000003                M idx SET idx+1
                      02162     STROKE NORMAL
0663   34E0               M     retlw STROKE_SWITCH|(NORMAL&0x3)
  00000004                M idx SET idx+1
                      02163     ;1
                      02164     NOTE SOL2, QUARTER
0664   3447               M     retlw ((QUARTER<<4)|SOL2)
  00000005                M idx SET idx+1
MPASM 5.76  /HOME/JACQUES/GITHUB/SPIDER_WEB/   12-19-2018  11:45:01         PAGE 86


LOC  OBJECT CODE     LINE SOURCE TEXT
  VALUE

                      02165     OCTAVE O5
0665   34F3               M     retlw OCT_SWITCH|(O5&3)
  00000006                M idx SET idx+1
                      02166     NOTE MI2, QUARTER
0666   3444               M     retlw ((QUARTER<<4)|MI2)
  00000007                M idx SET idx+1
                      02167     NOTE RE2, QUARTER
0667   3442               M     retlw ((QUARTER<<4)|RE2)
  00000008                M idx SET idx+1
                      02168     NOTE DO2, QUARTER
0668   3440               M     retlw ((QUARTER<<4)|DO2)
  00000009                M idx SET idx+1
                      02169     ;2
                      02170     OCTAVE O4
0669   34F2               M     retlw OCT_SWITCH|(O4&3)
  0000000A                M idx SET idx+1
                      02171     NOTE SOL2, HALF_DOT
066A   3437               M     retlw ((HALF_DOT<<4)|SOL2)
  0000000B                M idx SET idx+1
                      02172     NOTE SOL2, HEIGTH
066B   3467               M     retlw ((HEIGTH<<4)|SOL2)
  0000000C                M idx SET idx+1
                      02173     NOTE SOL2, HEIGTH
066C   3467               M     retlw ((HEIGTH<<4)|SOL2)
  0000000D                M idx SET idx+1
                      02174     ;3
                      02175     NOTE SOL2, QUARTER
066D   3447               M     retlw ((QUARTER<<4)|SOL2)
  0000000E                M idx SET idx+1
                      02176     OCTAVE O5
066E   34F3               M     retlw OCT_SWITCH|(O5&3)
  0000000F                M idx SET idx+1
                      02177     NOTE MI2, QUARTER
066F   3444               M     retlw ((QUARTER<<4)|MI2)
  00000010                M idx SET idx+1
                      02178     NOTE RE2, QUARTER
0670   3442               M     retlw ((QUARTER<<4)|RE2)
  00000011                M idx SET idx+1
                      02179     NOTE DO2, QUARTER
0671   3440               M     retlw ((QUARTER<<4)|DO2)
  00000012                M idx SET idx+1
                      02180     ;4
                      02181     OCTAVE O4
0672   34F2               M     retlw OCT_SWITCH|(O4&3)
  00000013                M idx SET idx+1
                      02182     NOTE LA2, HALF_DOT
0673   3439               M     retlw ((HALF_DOT<<4)|LA2)
  00000014                M idx SET idx+1
                      02183     PAUSE QUARTER
0674   344F               M     retlw ((QUARTER<<4)|0xf)
  00000015                M idx SET idx+1
                      02184     ;5
                      02185     NOTE LA2, QUARTER
MPASM 5.76  /HOME/JACQUES/GITHUB/SPIDER_WEB/   12-19-2018  11:45:01         PAGE 87


LOC  OBJECT CODE     LINE SOURCE TEXT
  VALUE

0675   3449               M     retlw ((QUARTER<<4)|LA2)
  00000016                M idx SET idx+1
                      02186     OCTAVE O5
0676   34F3               M     retlw OCT_SWITCH|(O5&3)
  00000017                M idx SET idx+1
                      02187     NOTE FA2, QUARTER
0677   3445               M     retlw ((QUARTER<<4)|FA2)
  00000018                M idx SET idx+1
                      02188     NOTE MI2, QUARTER
0678   3444               M     retlw ((QUARTER<<4)|MI2)
  00000019                M idx SET idx+1
                      02189     NOTE RE2, QUARTER
0679   3442               M     retlw ((QUARTER<<4)|RE2)
  0000001A                M idx SET idx+1
                      02190     ;6
                      02191     OCTAVE O4
067A   34F2               M     retlw OCT_SWITCH|(O4&3)
  0000001B                M idx SET idx+1
                      02192     NOTE SI2, HALF_DOT
067B   343B               M     retlw ((HALF_DOT<<4)|SI2)
  0000001C                M idx SET idx+1
                      02193     PAUSE QUARTER
067C   344F               M     retlw ((QUARTER<<4)|0xf)
  0000001D                M idx SET idx+1
                      02194     ;7
                      02195     OCTAVE O5
067D   34F3               M     retlw OCT_SWITCH|(O5&3)
  0000001E                M idx SET idx+1
                      02196     NOTE SOL2, QUARTER
067E   3447               M     retlw ((QUARTER<<4)|SOL2)
  0000001F                M idx SET idx+1
                      02197     NOTE SOL2, QUARTER
067F   3447               M     retlw ((QUARTER<<4)|SOL2)
  00000020                M idx SET idx+1
                      02198     NOTE FA2, QUARTER
0680   3445               M     retlw ((QUARTER<<4)|FA2)
  00000021                M idx SET idx+1
                      02199     NOTE RE2, QUARTER
0681   3442               M     retlw ((QUARTER<<4)|RE2)
  00000022                M idx SET idx+1
                      02200     ;8
                      02201     NOTE MI2, HALF_DOT
0682   3434               M     retlw ((HALF_DOT<<4)|MI2)
  00000023                M idx SET idx+1
                      02202     PAUSE QUARTER
0683   344F               M     retlw ((QUARTER<<4)|0xf)
  00000024                M idx SET idx+1
                      02203     ;9
                      02204     OCTAVE O4
0684   34F2               M     retlw OCT_SWITCH|(O4&3)
  00000025                M idx SET idx+1
                      02205     NOTE SOL2, QUARTER
0685   3447               M     retlw ((QUARTER<<4)|SOL2)
MPASM 5.76  /HOME/JACQUES/GITHUB/SPIDER_WEB/   12-19-2018  11:45:01         PAGE 88


LOC  OBJECT CODE     LINE SOURCE TEXT
  VALUE

  00000026                M idx SET idx+1
                      02206     OCTAVE O5
0686   34F3               M     retlw OCT_SWITCH|(O5&3)
  00000027                M idx SET idx+1
                      02207     NOTE MI2, QUARTER
0687   3444               M     retlw ((QUARTER<<4)|MI2)
  00000028                M idx SET idx+1
                      02208     NOTE RE2, QUARTER
0688   3442               M     retlw ((QUARTER<<4)|RE2)
  00000029                M idx SET idx+1
                      02209     NOTE DO2, QUARTER
0689   3440               M     retlw ((QUARTER<<4)|DO2)
  0000002A                M idx SET idx+1
                      02210     ;10
                      02211     OCTAVE O4
068A   34F2               M     retlw OCT_SWITCH|(O4&3)
  0000002B                M idx SET idx+1
                      02212     NOTE SOL2, HALF_DOT
068B   3437               M     retlw ((HALF_DOT<<4)|SOL2)
  0000002C                M idx SET idx+1
                      02213     PAUSE QUARTER
068C   344F               M     retlw ((QUARTER<<4)|0xf)
  0000002D                M idx SET idx+1
                      02214     ;11
                      02215     NOTE SOL2, QUARTER
068D   3447               M     retlw ((QUARTER<<4)|SOL2)
  0000002E                M idx SET idx+1
                      02216     OCTAVE O5
068E   34F3               M     retlw OCT_SWITCH|(O5&3)
  0000002F                M idx SET idx+1
                      02217     NOTE MI2, QUARTER
068F   3444               M     retlw ((QUARTER<<4)|MI2)
  00000030                M idx SET idx+1
                      02218     NOTE RE2, QUARTER
0690   3442               M     retlw ((QUARTER<<4)|RE2)
  00000031                M idx SET idx+1
                      02219     NOTE DO2, QUARTER
0691   3440               M     retlw ((QUARTER<<4)|DO2)
  00000032                M idx SET idx+1
                      02220     ;12
                      02221     OCTAVE O4
0692   34F2               M     retlw OCT_SWITCH|(O4&3)
  00000033                M idx SET idx+1
                      02222     NOTE LA2, HALF_DOT
0693   3439               M     retlw ((HALF_DOT<<4)|LA2)
  00000034                M idx SET idx+1
                      02223     NOTE LA2, QUARTER
0694   3449               M     retlw ((QUARTER<<4)|LA2)
  00000035                M idx SET idx+1
                      02224     ;13
                      02225     NOTE LA2, QUARTER
0695   3449               M     retlw ((QUARTER<<4)|LA2)
  00000036                M idx SET idx+1
MPASM 5.76  /HOME/JACQUES/GITHUB/SPIDER_WEB/   12-19-2018  11:45:01         PAGE 89


LOC  OBJECT CODE     LINE SOURCE TEXT
  VALUE

                      02226     OCTAVE O5
0696   34F3               M     retlw OCT_SWITCH|(O5&3)
  00000037                M idx SET idx+1
                      02227     NOTE FA2, QUARTER
0697   3445               M     retlw ((QUARTER<<4)|FA2)
  00000038                M idx SET idx+1
                      02228     NOTE MI2, QUARTER
0698   3444               M     retlw ((QUARTER<<4)|MI2)
  00000039                M idx SET idx+1
                      02229     NOTE RE2, QUARTER
0699   3442               M     retlw ((QUARTER<<4)|RE2)
  0000003A                M idx SET idx+1
                      02230     ;14
                      02231     NOTE SOL2, QUARTER
069A   3447               M     retlw ((QUARTER<<4)|SOL2)
  0000003B                M idx SET idx+1
                      02232     NOTE SOL2, QUARTER
069B   3447               M     retlw ((QUARTER<<4)|SOL2)
  0000003C                M idx SET idx+1
                      02233     NOTE SOL2, QUARTER
069C   3447               M     retlw ((QUARTER<<4)|SOL2)
  0000003D                M idx SET idx+1
                      02234     NOTE SOL2, QUARTER
069D   3447               M     retlw ((QUARTER<<4)|SOL2)
  0000003E                M idx SET idx+1
                      02235     ;15
                      02236     NOTE LA2, QUARTER
069E   3449               M     retlw ((QUARTER<<4)|LA2)
  0000003F                M idx SET idx+1
                      02237     NOTE SOL2, QUARTER
069F   3447               M     retlw ((QUARTER<<4)|SOL2)
  00000040                M idx SET idx+1
                      02238     NOTE FA2, QUARTER
06A0   3445               M     retlw ((QUARTER<<4)|FA2)
  00000041                M idx SET idx+1
                      02239     NOTE RE2, QUARTER
06A1   3442               M     retlw ((QUARTER<<4)|RE2)
  00000042                M idx SET idx+1
                      02240     ;16
                      02241     NOTE DO2, HALF
06A2   3420               M     retlw ((HALF<<4)|DO2)
  00000043                M idx SET idx+1
                      02242     NOTE SOL2, HALF
06A3   3427               M     retlw ((HALF<<4)|SOL2)
  00000044                M idx SET idx+1
                      02243     ;17
                      02244     NOTE MI2, QUARTER
06A4   3444               M     retlw ((QUARTER<<4)|MI2)
  00000045                M idx SET idx+1
                      02245     NOTE MI2, QUARTER
06A5   3444               M     retlw ((QUARTER<<4)|MI2)
  00000046                M idx SET idx+1
                      02246     NOTE MI2, HALF
MPASM 5.76  /HOME/JACQUES/GITHUB/SPIDER_WEB/   12-19-2018  11:45:01         PAGE 90


LOC  OBJECT CODE     LINE SOURCE TEXT
  VALUE

06A6   3424               M     retlw ((HALF<<4)|MI2)
  00000047                M idx SET idx+1
                      02247     ;18
                      02248     NOTE MI2, QUARTER
06A7   3444               M     retlw ((QUARTER<<4)|MI2)
  00000048                M idx SET idx+1
                      02249     NOTE MI2, QUARTER
06A8   3444               M     retlw ((QUARTER<<4)|MI2)
  00000049                M idx SET idx+1
                      02250     NOTE MI2, HALF
06A9   3424               M     retlw ((HALF<<4)|MI2)
  0000004A                M idx SET idx+1
                      02251     ;19
                      02252     NOTE MI2, QUARTER
06AA   3444               M     retlw ((QUARTER<<4)|MI2)
  0000004B                M idx SET idx+1
                      02253     NOTE SOL2, QUARTER
06AB   3447               M     retlw ((QUARTER<<4)|SOL2)
  0000004C                M idx SET idx+1
                      02254     NOTE DO2, QUARTER_DOT
06AC   3450               M     retlw ((QUARTER_DOT<<4)|DO2)
  0000004D                M idx SET idx+1
                      02255     NOTE RE2, HEIGTH
06AD   3462               M     retlw ((HEIGTH<<4)|RE2)
  0000004E                M idx SET idx+1
                      02256     ;20
                      02257     NOTE MI2, HALF_DOT
06AE   3434               M     retlw ((HALF_DOT<<4)|MI2)
  0000004F                M idx SET idx+1
                      02258     PAUSE QUARTER
06AF   344F               M     retlw ((QUARTER<<4)|0xf)
  00000050                M idx SET idx+1
                      02259     ;21
                      02260     NOTE FA2, QUARTER
06B0   3445               M     retlw ((QUARTER<<4)|FA2)
  00000051                M idx SET idx+1
                      02261     NOTE FA2, QUARTER
06B1   3445               M     retlw ((QUARTER<<4)|FA2)
  00000052                M idx SET idx+1
                      02262     NOTE FA2, QUARTER_DOT
06B2   3455               M     retlw ((QUARTER_DOT<<4)|FA2)
  00000053                M idx SET idx+1
                      02263     NOTE FA2, HEIGTH
06B3   3465               M     retlw ((HEIGTH<<4)|FA2)
  00000054                M idx SET idx+1
                      02264     ;22
                      02265     NOTE FA2, QUARTER
06B4   3445               M     retlw ((QUARTER<<4)|FA2)
  00000055                M idx SET idx+1
                      02266     NOTE MI2, QUARTER
06B5   3444               M     retlw ((QUARTER<<4)|MI2)
  00000056                M idx SET idx+1
                      02267     NOTE MI2, QUARTER
MPASM 5.76  /HOME/JACQUES/GITHUB/SPIDER_WEB/   12-19-2018  11:45:01         PAGE 91


LOC  OBJECT CODE     LINE SOURCE TEXT
  VALUE

06B6   3444               M     retlw ((QUARTER<<4)|MI2)
  00000057                M idx SET idx+1
                      02268     NOTE MI2, HEIGTH
06B7   3464               M     retlw ((HEIGTH<<4)|MI2)
  00000058                M idx SET idx+1
                      02269     NOTE MI2, HEIGTH
06B8   3464               M     retlw ((HEIGTH<<4)|MI2)
  00000059                M idx SET idx+1
                      02270     ;23
                      02271     NOTE MI2, QUARTER
06B9   3444               M     retlw ((QUARTER<<4)|MI2)
  0000005A                M idx SET idx+1
                      02272     NOTE RE2, QUARTER
06BA   3442               M     retlw ((QUARTER<<4)|RE2)
  0000005B                M idx SET idx+1
                      02273     NOTE RE2, QUARTER
06BB   3442               M     retlw ((QUARTER<<4)|RE2)
  0000005C                M idx SET idx+1
                      02274     NOTE MI2, QUARTER
06BC   3444               M     retlw ((QUARTER<<4)|MI2)
  0000005D                M idx SET idx+1
                      02275     ;24
                      02276     NOTE RE2, HALF
06BD   3422               M     retlw ((HALF<<4)|RE2)
  0000005E                M idx SET idx+1
                      02277     NOTE SOL2, HALF
06BE   3427               M     retlw ((HALF<<4)|SOL2)
  0000005F                M idx SET idx+1
                      02278     ;25
                      02279     NOTE MI2, QUARTER
06BF   3444               M     retlw ((QUARTER<<4)|MI2)
  00000060                M idx SET idx+1
                      02280     NOTE MI2, QUARTER
06C0   3444               M     retlw ((QUARTER<<4)|MI2)
  00000061                M idx SET idx+1
                      02281     NOTE MI2, HALF
06C1   3424               M     retlw ((HALF<<4)|MI2)
  00000062                M idx SET idx+1
                      02282     ;26
                      02283     NOTE MI2, QUARTER
06C2   3444               M     retlw ((QUARTER<<4)|MI2)
  00000063                M idx SET idx+1
                      02284     NOTE MI2, QUARTER
06C3   3444               M     retlw ((QUARTER<<4)|MI2)
  00000064                M idx SET idx+1
                      02285     NOTE MI2, HALF
06C4   3424               M     retlw ((HALF<<4)|MI2)
  00000065                M idx SET idx+1
                      02286     ;27
                      02287     NOTE MI2, QUARTER
06C5   3444               M     retlw ((QUARTER<<4)|MI2)
  00000066                M idx SET idx+1
                      02288     NOTE SOL2, QUARTER
MPASM 5.76  /HOME/JACQUES/GITHUB/SPIDER_WEB/   12-19-2018  11:45:01         PAGE 92


LOC  OBJECT CODE     LINE SOURCE TEXT
  VALUE

06C6   3447               M     retlw ((QUARTER<<4)|SOL2)
  00000067                M idx SET idx+1
                      02289     NOTE DO2, QUARTER_DOT
06C7   3450               M     retlw ((QUARTER_DOT<<4)|DO2)
  00000068                M idx SET idx+1
                      02290     NOTE RE2, HEIGTH
06C8   3462               M     retlw ((HEIGTH<<4)|RE2)
  00000069                M idx SET idx+1
                      02291     ;28
                      02292     NOTE MI2, HALF_DOT
06C9   3434               M     retlw ((HALF_DOT<<4)|MI2)
  0000006A                M idx SET idx+1
                      02293     PAUSE QUARTER
06CA   344F               M     retlw ((QUARTER<<4)|0xf)
  0000006B                M idx SET idx+1
                      02294     ;29
                      02295     NOTE FA2, QUARTER
06CB   3445               M     retlw ((QUARTER<<4)|FA2)
  0000006C                M idx SET idx+1
                      02296     NOTE FA2, QUARTER
06CC   3445               M     retlw ((QUARTER<<4)|FA2)
  0000006D                M idx SET idx+1
                      02297     NOTE FA2, QUARTER_DOT
06CD   3455               M     retlw ((QUARTER_DOT<<4)|FA2)
  0000006E                M idx SET idx+1
                      02298     NOTE FA2, HEIGTH
06CE   3465               M     retlw ((HEIGTH<<4)|FA2)
  0000006F                M idx SET idx+1
                      02299     ;30
                      02300     NOTE FA2, QUARTER
06CF   3445               M     retlw ((QUARTER<<4)|FA2)
  00000070                M idx SET idx+1
                      02301     NOTE MI2, QUARTER
06D0   3444               M     retlw ((QUARTER<<4)|MI2)
  00000071                M idx SET idx+1
                      02302     NOTE MI2, QUARTER
06D1   3444               M     retlw ((QUARTER<<4)|MI2)
  00000072                M idx SET idx+1
                      02303     NOTE MI2, HEIGTH
06D2   3464               M     retlw ((HEIGTH<<4)|MI2)
  00000073                M idx SET idx+1
                      02304     NOTE MI2, HEIGTH
06D3   3464               M     retlw ((HEIGTH<<4)|MI2)
  00000074                M idx SET idx+1
                      02305     ;31
                      02306     NOTE SOL2, QUARTER
06D4   3447               M     retlw ((QUARTER<<4)|SOL2)
  00000075                M idx SET idx+1
                      02307     NOTE SOL2, QUARTER
06D5   3447               M     retlw ((QUARTER<<4)|SOL2)
  00000076                M idx SET idx+1
                      02308     NOTE FA2, QUARTER
06D6   3445               M     retlw ((QUARTER<<4)|FA2)
MPASM 5.76  /HOME/JACQUES/GITHUB/SPIDER_WEB/   12-19-2018  11:45:01         PAGE 93


LOC  OBJECT CODE     LINE SOURCE TEXT
  VALUE

  00000077                M idx SET idx+1
                      02309     NOTE RE2, QUARTER
06D7   3442               M     retlw ((QUARTER<<4)|RE2)
  00000078                M idx SET idx+1
                      02310     ;32
                      02311     NOTE DO2, WHOLE
06D8   3400               M     retlw ((WHOLE<<4)|DO2)
  00000079                M idx SET idx+1
                      02312     MELODY_END
06D9   34FF               M     retlw STAFF_END
                      02313     
                      02314 ; à la claire fontaine
                      02315 ; REF: https://www.apprendrelaflute.com/a-la-claire-fontaine-a-la-flute-a-bec    
                      02316     MELODY claire_fontaine
  00000000                M idx SET 0
06DA                      M claire_fontaine 
06DA   30??               M     movlw high (claire_fontaine+7)
06DB   008A               M     movwf PCLATH
06DC   30??               M     movlw low (claire_fontaine+7)
06DD   07??               M     addwf note_idx,W
06DE   1803               M     skpnc
Message[305]: Using default destination of 1 (file).
06DF   0A8A               M     incf PCLATH
06E0   0082               M     movwf PCL
                      02317     TEMPO 100
06E1   344F 3491          M     dt  low (ENV_CLK*60*4/100-1),   high (ENV_CLK*60*4/100-1)
  00000002                M idx SET idx+2
                      02318     NOTE SOL2,HALF
06E3   3427               M     retlw ((HALF<<4)|SOL2)
  00000003                M idx SET idx+1
                      02319     NOTE SOL2,QUARTER
06E4   3447               M     retlw ((QUARTER<<4)|SOL2)
  00000004                M idx SET idx+1
                      02320     NOTE SI2,QUARTER
06E5   344B               M     retlw ((QUARTER<<4)|SI2)
  00000005                M idx SET idx+1
                      02321     NOTE SI2,QUARTER
06E6   344B               M     retlw ((QUARTER<<4)|SI2)
  00000006                M idx SET idx+1
                      02322     NOTE LA2,QUARTER
06E7   3449               M     retlw ((QUARTER<<4)|LA2)
  00000007                M idx SET idx+1
                      02323     NOTE SI2,QUARTER
06E8   344B               M     retlw ((QUARTER<<4)|SI2)
  00000008                M idx SET idx+1
                      02324     NOTE SOL2,QUARTER
06E9   3447               M     retlw ((QUARTER<<4)|SOL2)
  00000009                M idx SET idx+1
                      02325     NOTE SOL2,HALF
06EA   3427               M     retlw ((HALF<<4)|SOL2)
  0000000A                M idx SET idx+1
                      02326     NOTE SOL2,QUARTER
06EB   3447               M     retlw ((QUARTER<<4)|SOL2)
MPASM 5.76  /HOME/JACQUES/GITHUB/SPIDER_WEB/   12-19-2018  11:45:01         PAGE 94


LOC  OBJECT CODE     LINE SOURCE TEXT
  VALUE

  0000000B                M idx SET idx+1
                      02327     NOTE SI2,QUARTER
06EC   344B               M     retlw ((QUARTER<<4)|SI2)
  0000000C                M idx SET idx+1
                      02328     NOTE SI2,QUARTER
06ED   344B               M     retlw ((QUARTER<<4)|SI2)
  0000000D                M idx SET idx+1
                      02329     NOTE LA2,QUARTER
06EE   3449               M     retlw ((QUARTER<<4)|LA2)
  0000000E                M idx SET idx+1
                      02330     NOTE SI2,HALF
06EF   342B               M     retlw ((HALF<<4)|SI2)
  0000000F                M idx SET idx+1
                      02331     NOTE SI2,HALF
06F0   342B               M     retlw ((HALF<<4)|SI2)
  00000010                M idx SET idx+1
                      02332     NOTE SI2,QUARTER
06F1   344B               M     retlw ((QUARTER<<4)|SI2)
  00000011                M idx SET idx+1
                      02333     NOTE LA2,QUARTER
06F2   3449               M     retlw ((QUARTER<<4)|LA2)
  00000012                M idx SET idx+1
                      02334     NOTE SOL2,QUARTER
06F3   3447               M     retlw ((QUARTER<<4)|SOL2)
  00000013                M idx SET idx+1
                      02335     NOTE SI2,QUARTER
06F4   344B               M     retlw ((QUARTER<<4)|SI2)
  00000014                M idx SET idx+1
                      02336     NOTE RE3,QUARTER
06F5   344E               M     retlw ((QUARTER<<4)|RE3)
  00000015                M idx SET idx+1
                      02337     NOTE SI2,QUARTER
06F6   344B               M     retlw ((QUARTER<<4)|SI2)
  00000016                M idx SET idx+1
                      02338     NOTE RE3,HALF
06F7   342E               M     retlw ((HALF<<4)|RE3)
  00000017                M idx SET idx+1
                      02339     NOTE RE3,QUARTER
06F8   344E               M     retlw ((QUARTER<<4)|RE3)
  00000018                M idx SET idx+1
                      02340     NOTE SI2,QUARTER
06F9   344B               M     retlw ((QUARTER<<4)|SI2)
  00000019                M idx SET idx+1
                      02341     NOTE SOL2,QUARTER
06FA   3447               M     retlw ((QUARTER<<4)|SOL2)
  0000001A                M idx SET idx+1
                      02342     NOTE SI2,QUARTER
06FB   344B               M     retlw ((QUARTER<<4)|SI2)
  0000001B                M idx SET idx+1
                      02343     NOTE LA2,HALF
06FC   3429               M     retlw ((HALF<<4)|LA2)
  0000001C                M idx SET idx+1
                      02344     NOTE SOL2,HALF
MPASM 5.76  /HOME/JACQUES/GITHUB/SPIDER_WEB/   12-19-2018  11:45:01         PAGE 95


LOC  OBJECT CODE     LINE SOURCE TEXT
  VALUE

06FD   3427               M     retlw ((HALF<<4)|SOL2)
  0000001D                M idx SET idx+1
                      02345     NOTE SOL2,QUARTER
06FE   3447               M     retlw ((QUARTER<<4)|SOL2)
  0000001E                M idx SET idx+1
                      02346     NOTE SI2,QUARTER
06FF   344B               M     retlw ((QUARTER<<4)|SI2)
  0000001F                M idx SET idx+1
                      02347     NOTE SI2,QUARTER
0700   344B               M     retlw ((QUARTER<<4)|SI2)
  00000020                M idx SET idx+1
                      02348     NOTE LA2,HEIGTH
0701   3469               M     retlw ((HEIGTH<<4)|LA2)
  00000021                M idx SET idx+1
                      02349     NOTE SOL2,HEIGTH
0702   3467               M     retlw ((HEIGTH<<4)|SOL2)
  00000022                M idx SET idx+1
                      02350     NOTE SI2,QUARTER
0703   344B               M     retlw ((QUARTER<<4)|SI2)
  00000023                M idx SET idx+1
                      02351     NOTE SOL2,QUARTER
0704   3447               M     retlw ((QUARTER<<4)|SOL2)
  00000024                M idx SET idx+1
                      02352     NOTE SI2, HALF
0705   342B               M     retlw ((HALF<<4)|SI2)
  00000025                M idx SET idx+1
                      02353     NOTE SI2,QUARTER
0706   344B               M     retlw ((QUARTER<<4)|SI2)
  00000026                M idx SET idx+1
                      02354     NOTE LA2,HEIGTH
0707   3469               M     retlw ((HEIGTH<<4)|LA2)
  00000027                M idx SET idx+1
                      02355     NOTE SOL2,HEIGTH
0708   3467               M     retlw ((HEIGTH<<4)|SOL2)
  00000028                M idx SET idx+1
                      02356     NOTE SI2,QUARTER
0709   344B               M     retlw ((QUARTER<<4)|SI2)
  00000029                M idx SET idx+1
                      02357     NOTE LA2,QUARTER
070A   3449               M     retlw ((QUARTER<<4)|LA2)
  0000002A                M idx SET idx+1
                      02358     NOTE SOL2,HALF
070B   3427               M     retlw ((HALF<<4)|SOL2)
  0000002B                M idx SET idx+1
                      02359     MELODY_END 
070C   34FF               M     retlw STAFF_END
                      02360     
                      02361 ; morning as broken
                      02362 ; REF: https://www.8notes.com    
                      02363         MELODY morning_has_broken
  00000000                M idx SET 0
070D                      M morning_has_broken 
070D   30??               M     movlw high (morning_has_broken+7)
MPASM 5.76  /HOME/JACQUES/GITHUB/SPIDER_WEB/   12-19-2018  11:45:01         PAGE 96


LOC  OBJECT CODE     LINE SOURCE TEXT
  VALUE

070E   008A               M     movwf PCLATH
070F   30??               M     movlw low (morning_has_broken+7)
0710   07??               M     addwf note_idx,W
0711   1803               M     skpnc
Message[305]: Using default destination of 1 (file).
0712   0A8A               M     incf PCLATH
0713   0082               M     movwf PCL
                      02364         TEMPO 100
0714   344F 3491          M     dt  low (ENV_CLK*60*4/100-1),   high (ENV_CLK*60*4/100-1)
  00000002                M idx SET idx+2
                      02365         OCTAVE O2
0716   34F0               M     retlw OCT_SWITCH|(O2&3)
  00000003                M idx SET idx+1
                      02366         STROKE LEGATO
0717   34E2               M     retlw STROKE_SWITCH|(LEGATO&0x3)
  00000004                M idx SET idx+1
                      02367         ;0
                      02368         NOTE FA2, QUARTER
0718   3445               M     retlw ((QUARTER<<4)|FA2)
  00000005                M idx SET idx+1
                      02369         NOTE LA2, QUARTER
0719   3449               M     retlw ((QUARTER<<4)|LA2)
  00000006                M idx SET idx+1
                      02370         NOTE DO3, QUARTER
071A   344C               M     retlw ((QUARTER<<4)|DO3)
  00000007                M idx SET idx+1
                      02371         ;1
                      02372         OCTAVE O3
071B   34F1               M     retlw OCT_SWITCH|(O3&3)
  00000008                M idx SET idx+1
                      02373         NOTE F2, HALF_DOT
071C   3435               M     retlw ((HALF_DOT<<4)|F2)
  00000009                M idx SET idx+1
                      02374         ;2
                      02375         NOTE SOL2, HALF_DOT
071D   3437               M     retlw ((HALF_DOT<<4)|SOL2)
  0000000A                M idx SET idx+1
                      02376         ;3
                      02377         NOTE MI2, QUARTER
071E   3444               M     retlw ((QUARTER<<4)|MI2)
  0000000B                M idx SET idx+1
                      02378         NOTE RE2, QUARTER
071F   3442               M     retlw ((QUARTER<<4)|RE2)
  0000000C                M idx SET idx+1
                      02379         NOTE DO2, QUARTER
0720   3440               M     retlw ((QUARTER<<4)|DO2)
  0000000D                M idx SET idx+1
                      02380         ;4
                      02381         NOTE RE2, QUARTER_DOT
0721   3452               M     retlw ((QUARTER_DOT<<4)|RE2)
  0000000E                M idx SET idx+1
                      02382         NOTE MI2, HEIGTH
0722   3464               M     retlw ((HEIGTH<<4)|MI2)
MPASM 5.76  /HOME/JACQUES/GITHUB/SPIDER_WEB/   12-19-2018  11:45:01         PAGE 97


LOC  OBJECT CODE     LINE SOURCE TEXT
  VALUE

  0000000F                M idx SET idx+1
                      02383         NOTE RE2, QUARTER
0723   3442               M     retlw ((QUARTER<<4)|RE2)
  00000010                M idx SET idx+1
                      02384         ;5
                      02385         NOTE DO2, HALF_DOT
0724   3430               M     retlw ((HALF_DOT<<4)|DO2)
  00000011                M idx SET idx+1
                      02386         ;6
                      02387         OCTAVE O2
0725   34F0               M     retlw OCT_SWITCH|(O2&3)
  00000012                M idx SET idx+1
                      02388         NOTE FA2, QUARTER
0726   3445               M     retlw ((QUARTER<<4)|FA2)
  00000013                M idx SET idx+1
                      02389         NOTE SOL2, QUARTER
0727   3447               M     retlw ((QUARTER<<4)|SOL2)
  00000014                M idx SET idx+1
                      02390         NOTE LA2, QUARTER
0728   3449               M     retlw ((QUARTER<<4)|LA2)
  00000015                M idx SET idx+1
                      02391         ;7
                      02392         NOTE DO3, HALF_DOT
0729   343C               M     retlw ((HALF_DOT<<4)|DO3)
  00000016                M idx SET idx+1
                      02393         ;8
                      02394         NOTE RE3, HALF_DOT
072A   343E               M     retlw ((HALF_DOT<<4)|RE3)
  00000017                M idx SET idx+1
                      02395         ;9
                      02396         NOTE DO3, QUARTER
072B   344C               M     retlw ((QUARTER<<4)|DO3)
  00000018                M idx SET idx+1
                      02397         NOTE LA2, QUARTER
072C   3449               M     retlw ((QUARTER<<4)|LA2)
  00000019                M idx SET idx+1
                      02398         NOTE FA2, QUARTER
072D   3445               M     retlw ((QUARTER<<4)|FA2)
  0000001A                M idx SET idx+1
                      02399         ;10
                      02400         NOTE SOL2, HALF_DOT
072E   3437               M     retlw ((HALF_DOT<<4)|SOL2)
  0000001B                M idx SET idx+1
                      02401         ;11
                      02402         NOTE SOL2, HALF_DOT
072F   3437               M     retlw ((HALF_DOT<<4)|SOL2)
  0000001C                M idx SET idx+1
                      02403         ;12
                      02404         NOTE DO3, QUARTER
0730   344C               M     retlw ((QUARTER<<4)|DO3)
  0000001D                M idx SET idx+1
                      02405         NOTE LA2, QUARTER
0731   3449               M     retlw ((QUARTER<<4)|LA2)
MPASM 5.76  /HOME/JACQUES/GITHUB/SPIDER_WEB/   12-19-2018  11:45:01         PAGE 98


LOC  OBJECT CODE     LINE SOURCE TEXT
  VALUE

  0000001E                M idx SET idx+1
                      02406         NOTE DO3, QUARTER
0732   344C               M     retlw ((QUARTER<<4)|DO3)
  0000001F                M idx SET idx+1
                      02407         ;13
                      02408         OCTAVE O3
0733   34F1               M     retlw OCT_SWITCH|(O3&3)
  00000020                M idx SET idx+1
                      02409         NOTE FA2, HALF_DOT
0734   3435               M     retlw ((HALF_DOT<<4)|FA2)
  00000021                M idx SET idx+1
                      02410         ;14
                      02411         NOTE RE2, HALF_DOT
0735   3432               M     retlw ((HALF_DOT<<4)|RE2)
  00000022                M idx SET idx+1
                      02412         ;15
                      02413         OCTAVE O2
0736   34F0               M     retlw OCT_SWITCH|(O2&3)
  00000023                M idx SET idx+1
                      02414         NOTE DO3, QUARTER
0737   344C               M     retlw ((QUARTER<<4)|DO3)
  00000024                M idx SET idx+1
                      02415         NOTE LA2, QUARTER
0738   3449               M     retlw ((QUARTER<<4)|LA2)
  00000025                M idx SET idx+1
                      02416         NOTE FA2, QUARTER
0739   3445               M     retlw ((QUARTER<<4)|FA2)
  00000026                M idx SET idx+1
                      02417         ;16
                      02418         NOTE FA2, HALF_DOT
073A   3435               M     retlw ((HALF_DOT<<4)|FA2)
  00000027                M idx SET idx+1
                      02419         ;17
                      02420         NOTE SOL2, HALF_DOT
073B   3437               M     retlw ((HALF_DOT<<4)|SOL2)
  00000028                M idx SET idx+1
                      02421         ;18
                      02422         NOTE LA2, QUARTER
073C   3449               M     retlw ((QUARTER<<4)|LA2)
  00000029                M idx SET idx+1
                      02423         NOTE SOL2, QUARTER
073D   3447               M     retlw ((QUARTER<<4)|SOL2)
  0000002A                M idx SET idx+1
                      02424         NOTE LA2, QUARTER
073E   3449               M     retlw ((QUARTER<<4)|LA2)
  0000002B                M idx SET idx+1
                      02425         ;19
                      02426         NOTE DO3, HALF_DOT
073F   343C               M     retlw ((HALF_DOT<<4)|DO3)
  0000002C                M idx SET idx+1
                      02427         ;20
                      02428         NOTE RE3, HALF_DOT
0740   343E               M     retlw ((HALF_DOT<<4)|RE3)
MPASM 5.76  /HOME/JACQUES/GITHUB/SPIDER_WEB/   12-19-2018  11:45:01         PAGE 99


LOC  OBJECT CODE     LINE SOURCE TEXT
  VALUE

  0000002D                M idx SET idx+1
                      02429         ;21
                      02430         NOTE SOL2, QUARTER
0741   3447               M     retlw ((QUARTER<<4)|SOL2)
  0000002E                M idx SET idx+1
                      02431         NOTE LA2, QUARTER
0742   3449               M     retlw ((QUARTER<<4)|LA2)
  0000002F                M idx SET idx+1
                      02432         NOTE SOL2, QUARTER
0743   3447               M     retlw ((QUARTER<<4)|SOL2)
  00000030                M idx SET idx+1
                      02433         ;22
                      02434         NOTE FA2, HALF_DOT
0744   3435               M     retlw ((HALF_DOT<<4)|FA2)
  00000031                M idx SET idx+1
                      02435         ;23
                      02436         NOTE FA2, HALF_DOT
0745   3435               M     retlw ((HALF_DOT<<4)|FA2)
  00000032                M idx SET idx+1
                      02437         ;24
                      02438         NOTE FA2, HALF_DOT
0746   3435               M     retlw ((HALF_DOT<<4)|FA2)
  00000033                M idx SET idx+1
                      02439         
                      02440         MELODY_END
0747   34FF               M     retlw STAFF_END
                      02441 
                      02442 ; fur elise
                      02443 ; REF:  https://www.8notes.com/scores/571.asp
                      02444         MELODY fur_elise
  00000000                M idx SET 0
0748                      M fur_elise 
0748   30??               M     movlw high (fur_elise+7)
0749   008A               M     movwf PCLATH
074A   30??               M     movlw low (fur_elise+7)
074B   07??               M     addwf note_idx,W
074C   1803               M     skpnc
Message[305]: Using default destination of 1 (file).
074D   0A8A               M     incf PCLATH
074E   0082               M     movwf PCL
                      02445         TEMPO 100
074F   344F 3491          M     dt  low (ENV_CLK*60*4/100-1),   high (ENV_CLK*60*4/100-1)
  00000002                M idx SET idx+2
                      02446         OCTAVE O3
0751   34F1               M     retlw OCT_SWITCH|(O3&3)
  00000003                M idx SET idx+1
                      02447         STROKE LEGATO
0752   34E2               M     retlw STROKE_SWITCH|(LEGATO&0x3)
  00000004                M idx SET idx+1
                      02448         ;1
                      02449         NOTE MI2, HEIGTH
0753   3464               M     retlw ((HEIGTH<<4)|MI2)
  00000005                M idx SET idx+1
MPASM 5.76  /HOME/JACQUES/GITHUB/SPIDER_WEB/   12-19-2018  11:45:01         PAGE 100


LOC  OBJECT CODE     LINE SOURCE TEXT
  VALUE

                      02450         NOTE RE2D, HEIGTH
0754   3463               M     retlw ((HEIGTH<<4)|RE2D)
  00000006                M idx SET idx+1
                      02451         ;2
                      02452         NOTE MI2, HEIGTH
0755   3464               M     retlw ((HEIGTH<<4)|MI2)
  00000007                M idx SET idx+1
                      02453         NOTE RE2D, HEIGTH
0756   3463               M     retlw ((HEIGTH<<4)|RE2D)
  00000008                M idx SET idx+1
                      02454         NOTE MI2, HEIGTH
0757   3464               M     retlw ((HEIGTH<<4)|MI2)
  00000009                M idx SET idx+1
                      02455         OCTAVE O2
0758   34F0               M     retlw OCT_SWITCH|(O2&3)
  0000000A                M idx SET idx+1
                      02456         NOTE SI2, HEIGTH
0759   346B               M     retlw ((HEIGTH<<4)|SI2)
  0000000B                M idx SET idx+1
                      02457         NOTE RE3, HEIGTH
075A   346E               M     retlw ((HEIGTH<<4)|RE3)
  0000000C                M idx SET idx+1
                      02458         NOTE DO3, HEIGTH
075B   346C               M     retlw ((HEIGTH<<4)|DO3)
  0000000D                M idx SET idx+1
                      02459         ;3
                      02460         NOTE LA2, QUARTER
075C   3449               M     retlw ((QUARTER<<4)|LA2)
  0000000E                M idx SET idx+1
                      02461         PAUSE HEIGTH
075D   346F               M     retlw ((HEIGTH<<4)|0xf)
  0000000F                M idx SET idx+1
                      02462         NOTE DO2, HEIGTH
075E   3460               M     retlw ((HEIGTH<<4)|DO2)
  00000010                M idx SET idx+1
                      02463         NOTE MI2, HEIGTH
075F   3464               M     retlw ((HEIGTH<<4)|MI2)
  00000011                M idx SET idx+1
                      02464         NOTE LA2, HEIGTH
0760   3469               M     retlw ((HEIGTH<<4)|LA2)
  00000012                M idx SET idx+1
                      02465         ;4
                      02466         NOTE SI2, QUARTER
0761   344B               M     retlw ((QUARTER<<4)|SI2)
  00000013                M idx SET idx+1
                      02467         PAUSE HEIGTH
0762   346F               M     retlw ((HEIGTH<<4)|0xf)
  00000014                M idx SET idx+1
                      02468         NOTE MI2, HEIGTH
0763   3464               M     retlw ((HEIGTH<<4)|MI2)
  00000015                M idx SET idx+1
                      02469         NOTE SOL2D, HEIGTH
0764   3468               M     retlw ((HEIGTH<<4)|SOL2D)
MPASM 5.76  /HOME/JACQUES/GITHUB/SPIDER_WEB/   12-19-2018  11:45:01         PAGE 101


LOC  OBJECT CODE     LINE SOURCE TEXT
  VALUE

  00000016                M idx SET idx+1
                      02470         NOTE SI2, HEIGTH
0765   346B               M     retlw ((HEIGTH<<4)|SI2)
  00000017                M idx SET idx+1
                      02471         ;5
                      02472         NOTE DO3, QUARTER
0766   344C               M     retlw ((QUARTER<<4)|DO3)
  00000018                M idx SET idx+1
                      02473         PAUSE HEIGTH
0767   346F               M     retlw ((HEIGTH<<4)|0xf)
  00000019                M idx SET idx+1
                      02474         NOTE MI2, HEIGTH
0768   3464               M     retlw ((HEIGTH<<4)|MI2)
  0000001A                M idx SET idx+1
                      02475         OCTAVE O3
0769   34F1               M     retlw OCT_SWITCH|(O3&3)
  0000001B                M idx SET idx+1
                      02476         NOTE MI2, HEIGTH
076A   3464               M     retlw ((HEIGTH<<4)|MI2)
  0000001C                M idx SET idx+1
                      02477         NOTE RE2D, HEIGTH
076B   3463               M     retlw ((HEIGTH<<4)|RE2D)
  0000001D                M idx SET idx+1
                      02478         ;6
                      02479         NOTE MI2, HEIGTH
076C   3464               M     retlw ((HEIGTH<<4)|MI2)
  0000001E                M idx SET idx+1
                      02480         NOTE RE2D, HEIGTH
076D   3463               M     retlw ((HEIGTH<<4)|RE2D)
  0000001F                M idx SET idx+1
                      02481         NOTE MI2, HEIGTH
076E   3464               M     retlw ((HEIGTH<<4)|MI2)
  00000020                M idx SET idx+1
                      02482         OCTAVE O2
076F   34F0               M     retlw OCT_SWITCH|(O2&3)
  00000021                M idx SET idx+1
                      02483         NOTE SI2, HEIGTH
0770   346B               M     retlw ((HEIGTH<<4)|SI2)
  00000022                M idx SET idx+1
                      02484         OCTAVE O3
0771   34F1               M     retlw OCT_SWITCH|(O3&3)
  00000023                M idx SET idx+1
                      02485         NOTE RE2, HEIGTH
0772   3462               M     retlw ((HEIGTH<<4)|RE2)
  00000024                M idx SET idx+1
                      02486         NOTE DO2, HEIGTH
0773   3460               M     retlw ((HEIGTH<<4)|DO2)
  00000025                M idx SET idx+1
                      02487         ;7
                      02488         OCTAVE O2
0774   34F0               M     retlw OCT_SWITCH|(O2&3)
  00000026                M idx SET idx+1
                      02489         NOTE LA2, QUARTER
MPASM 5.76  /HOME/JACQUES/GITHUB/SPIDER_WEB/   12-19-2018  11:45:01         PAGE 102


LOC  OBJECT CODE     LINE SOURCE TEXT
  VALUE

0775   3449               M     retlw ((QUARTER<<4)|LA2)
  00000027                M idx SET idx+1
                      02490         PAUSE HEIGTH
0776   346F               M     retlw ((HEIGTH<<4)|0xf)
  00000028                M idx SET idx+1
                      02491         NOTE DO2, HEIGTH
0777   3460               M     retlw ((HEIGTH<<4)|DO2)
  00000029                M idx SET idx+1
                      02492         NOTE MI2, HEIGTH
0778   3464               M     retlw ((HEIGTH<<4)|MI2)
  0000002A                M idx SET idx+1
                      02493         NOTE LA2, HEIGTH
0779   3469               M     retlw ((HEIGTH<<4)|LA2)
  0000002B                M idx SET idx+1
                      02494         ;8
                      02495         NOTE SI2, QUARTER
077A   344B               M     retlw ((QUARTER<<4)|SI2)
  0000002C                M idx SET idx+1
                      02496         PAUSE HEIGTH
077B   346F               M     retlw ((HEIGTH<<4)|0xf)
  0000002D                M idx SET idx+1
                      02497         NOTE MI2, HEIGTH
077C   3464               M     retlw ((HEIGTH<<4)|MI2)
  0000002E                M idx SET idx+1
                      02498         NOTE DO3, HEIGTH
077D   346C               M     retlw ((HEIGTH<<4)|DO3)
  0000002F                M idx SET idx+1
                      02499         NOTE SI2, HEIGTH
077E   346B               M     retlw ((HEIGTH<<4)|SI2)
  00000030                M idx SET idx+1
                      02500         ;9
                      02501         NOTE LA2, HALF
077F   3429               M     retlw ((HALF<<4)|LA2)
  00000031                M idx SET idx+1
                      02502         OCTAVE O3
0780   34F1               M     retlw OCT_SWITCH|(O3&3)
  00000032                M idx SET idx+1
                      02503         NOTE MI2, HEIGTH
0781   3464               M     retlw ((HEIGTH<<4)|MI2)
  00000033                M idx SET idx+1
                      02504         NOTE RE2D, HEIGTH
0782   3463               M     retlw ((HEIGTH<<4)|RE2D)
  00000034                M idx SET idx+1
                      02505         ;10
                      02506         NOTE MI2, HEIGTH
0783   3464               M     retlw ((HEIGTH<<4)|MI2)
  00000035                M idx SET idx+1
                      02507         NOTE RE2D, HEIGTH
0784   3463               M     retlw ((HEIGTH<<4)|RE2D)
  00000036                M idx SET idx+1
                      02508         NOTE MI2, HEIGTH
0785   3464               M     retlw ((HEIGTH<<4)|MI2)
  00000037                M idx SET idx+1
MPASM 5.76  /HOME/JACQUES/GITHUB/SPIDER_WEB/   12-19-2018  11:45:01         PAGE 103


LOC  OBJECT CODE     LINE SOURCE TEXT
  VALUE

                      02509         OCTAVE O2
0786   34F0               M     retlw OCT_SWITCH|(O2&3)
  00000038                M idx SET idx+1
                      02510         NOTE SI2, HEIGTH
0787   346B               M     retlw ((HEIGTH<<4)|SI2)
  00000039                M idx SET idx+1
                      02511         NOTE RE3, HEIGTH
0788   346E               M     retlw ((HEIGTH<<4)|RE3)
  0000003A                M idx SET idx+1
                      02512         NOTE DO3, HEIGTH
0789   346C               M     retlw ((HEIGTH<<4)|DO3)
  0000003B                M idx SET idx+1
                      02513         ;11
                      02514         NOTE LA2, QUARTER
078A   3449               M     retlw ((QUARTER<<4)|LA2)
  0000003C                M idx SET idx+1
                      02515         PAUSE HEIGTH
078B   346F               M     retlw ((HEIGTH<<4)|0xf)
  0000003D                M idx SET idx+1
                      02516         NOTE DO2, HEIGTH
078C   3460               M     retlw ((HEIGTH<<4)|DO2)
  0000003E                M idx SET idx+1
                      02517         NOTE MI2, HEIGTH
078D   3464               M     retlw ((HEIGTH<<4)|MI2)
  0000003F                M idx SET idx+1
                      02518         NOTE LA2, HEIGTH
078E   3469               M     retlw ((HEIGTH<<4)|LA2)
  00000040                M idx SET idx+1
                      02519         ;12
                      02520         NOTE SI2, QUARTER
078F   344B               M     retlw ((QUARTER<<4)|SI2)
  00000041                M idx SET idx+1
                      02521         PAUSE HEIGTH
0790   346F               M     retlw ((HEIGTH<<4)|0xf)
  00000042                M idx SET idx+1
                      02522         NOTE MI2, HEIGTH
0791   3464               M     retlw ((HEIGTH<<4)|MI2)
  00000043                M idx SET idx+1
                      02523         NOTE SOL2D, HEIGTH
0792   3468               M     retlw ((HEIGTH<<4)|SOL2D)
  00000044                M idx SET idx+1
                      02524         NOTE SI2, HEIGTH
0793   346B               M     retlw ((HEIGTH<<4)|SI2)
  00000045                M idx SET idx+1
                      02525         ;13
                      02526         NOTE DO3, QUARTER
0794   344C               M     retlw ((QUARTER<<4)|DO3)
  00000046                M idx SET idx+1
                      02527         PAUSE HEIGTH
0795   346F               M     retlw ((HEIGTH<<4)|0xf)
  00000047                M idx SET idx+1
                      02528         NOTE MI2, HEIGTH
0796   3464               M     retlw ((HEIGTH<<4)|MI2)
MPASM 5.76  /HOME/JACQUES/GITHUB/SPIDER_WEB/   12-19-2018  11:45:01         PAGE 104


LOC  OBJECT CODE     LINE SOURCE TEXT
  VALUE

  00000048                M idx SET idx+1
                      02529         OCTAVE O3
0797   34F1               M     retlw OCT_SWITCH|(O3&3)
  00000049                M idx SET idx+1
                      02530         NOTE MI2, HEIGTH
0798   3464               M     retlw ((HEIGTH<<4)|MI2)
  0000004A                M idx SET idx+1
                      02531         NOTE RE2D, HEIGTH
0799   3463               M     retlw ((HEIGTH<<4)|RE2D)
  0000004B                M idx SET idx+1
                      02532         ;14
                      02533         NOTE MI2, HEIGTH
079A   3464               M     retlw ((HEIGTH<<4)|MI2)
  0000004C                M idx SET idx+1
                      02534         NOTE RE2D,HEIGTH
079B   3463               M     retlw ((HEIGTH<<4)|RE2D)
  0000004D                M idx SET idx+1
                      02535         NOTE MI2, HEIGTH
079C   3464               M     retlw ((HEIGTH<<4)|MI2)
  0000004E                M idx SET idx+1
                      02536         OCTAVE O2
079D   34F0               M     retlw OCT_SWITCH|(O2&3)
  0000004F                M idx SET idx+1
                      02537         NOTE SI2, HEIGTH
079E   346B               M     retlw ((HEIGTH<<4)|SI2)
  00000050                M idx SET idx+1
                      02538         NOTE RE3, HEIGTH
079F   346E               M     retlw ((HEIGTH<<4)|RE3)
  00000051                M idx SET idx+1
                      02539         NOTE DO3, HEIGTH
07A0   346C               M     retlw ((HEIGTH<<4)|DO3)
  00000052                M idx SET idx+1
                      02540         ;15
                      02541         NOTE LA2, QUARTER
07A1   3449               M     retlw ((QUARTER<<4)|LA2)
  00000053                M idx SET idx+1
                      02542         PAUSE HEIGTH
07A2   346F               M     retlw ((HEIGTH<<4)|0xf)
  00000054                M idx SET idx+1
                      02543         NOTE DO2, HEIGTH
07A3   3460               M     retlw ((HEIGTH<<4)|DO2)
  00000055                M idx SET idx+1
                      02544         NOTE MI2, HEIGTH
07A4   3464               M     retlw ((HEIGTH<<4)|MI2)
  00000056                M idx SET idx+1
                      02545         NOTE LA2, HEIGTH
07A5   3469               M     retlw ((HEIGTH<<4)|LA2)
  00000057                M idx SET idx+1
                      02546         ;16
                      02547         NOTE SI2, QUARTER
07A6   344B               M     retlw ((QUARTER<<4)|SI2)
  00000058                M idx SET idx+1
                      02548         PAUSE HEIGTH
MPASM 5.76  /HOME/JACQUES/GITHUB/SPIDER_WEB/   12-19-2018  11:45:01         PAGE 105


LOC  OBJECT CODE     LINE SOURCE TEXT
  VALUE

07A7   346F               M     retlw ((HEIGTH<<4)|0xf)
  00000059                M idx SET idx+1
                      02549         NOTE MI2, HEIGTH
07A8   3464               M     retlw ((HEIGTH<<4)|MI2)
  0000005A                M idx SET idx+1
                      02550         NOTE DO3, HEIGTH
07A9   346C               M     retlw ((HEIGTH<<4)|DO3)
  0000005B                M idx SET idx+1
                      02551         NOTE SI2, HEIGTH
07AA   346B               M     retlw ((HEIGTH<<4)|SI2)
  0000005C                M idx SET idx+1
                      02552         ;17
                      02553         NOTE LA2, QUARTER
07AB   3449               M     retlw ((QUARTER<<4)|LA2)
  0000005D                M idx SET idx+1
                      02554         PAUSE HEIGTH
07AC   346F               M     retlw ((HEIGTH<<4)|0xf)
  0000005E                M idx SET idx+1
                      02555         NOTE SI2, HEIGTH
07AD   346B               M     retlw ((HEIGTH<<4)|SI2)
  0000005F                M idx SET idx+1
                      02556         NOTE DO3, HEIGTH
07AE   346C               M     retlw ((HEIGTH<<4)|DO3)
  00000060                M idx SET idx+1
                      02557         NOTE RE3, HEIGTH
07AF   346E               M     retlw ((HEIGTH<<4)|RE3)
  00000061                M idx SET idx+1
                      02558         ;18
                      02559         ;REPT_START
                      02560         OCTAVE O3
07B0   34F1               M     retlw OCT_SWITCH|(O3&3)
  00000062                M idx SET idx+1
                      02561         NOTE MI2, QUARTER_DOT
07B1   3454               M     retlw ((QUARTER_DOT<<4)|MI2)
  00000063                M idx SET idx+1
                      02562         OCTAVE O2
07B2   34F0               M     retlw OCT_SWITCH|(O2&3)
  00000064                M idx SET idx+1
                      02563         NOTE SOL2, HEIGTH
07B3   3467               M     retlw ((HEIGTH<<4)|SOL2)
  00000065                M idx SET idx+1
                      02564         OCTAVE O3
07B4   34F1               M     retlw OCT_SWITCH|(O3&3)
  00000066                M idx SET idx+1
                      02565         NOTE FA2, HEIGTH
07B5   3465               M     retlw ((HEIGTH<<4)|FA2)
  00000067                M idx SET idx+1
                      02566         NOTE MI2, HEIGTH
07B6   3464               M     retlw ((HEIGTH<<4)|MI2)
  00000068                M idx SET idx+1
                      02567         ;19
                      02568         NOTE RE2, QUARTER_DOT
07B7   3452               M     retlw ((QUARTER_DOT<<4)|RE2)
MPASM 5.76  /HOME/JACQUES/GITHUB/SPIDER_WEB/   12-19-2018  11:45:01         PAGE 106


LOC  OBJECT CODE     LINE SOURCE TEXT
  VALUE

  00000069                M idx SET idx+1
                      02569         OCTAVE O2
07B8   34F0               M     retlw OCT_SWITCH|(O2&3)
  0000006A                M idx SET idx+1
                      02570         NOTE FA2, HEIGTH
07B9   3465               M     retlw ((HEIGTH<<4)|FA2)
  0000006B                M idx SET idx+1
                      02571         OCTAVE O3
07BA   34F1               M     retlw OCT_SWITCH|(O3&3)
  0000006C                M idx SET idx+1
                      02572         NOTE MI2, HEIGTH
07BB   3464               M     retlw ((HEIGTH<<4)|MI2)
  0000006D                M idx SET idx+1
                      02573         NOTE RE2, HEIGTH
07BC   3462               M     retlw ((HEIGTH<<4)|RE2)
  0000006E                M idx SET idx+1
                      02574         ;20
                      02575         NOTE DO2, QUARTER_DOT
07BD   3450               M     retlw ((QUARTER_DOT<<4)|DO2)
  0000006F                M idx SET idx+1
                      02576         OCTAVE O2
07BE   34F0               M     retlw OCT_SWITCH|(O2&3)
  00000070                M idx SET idx+1
                      02577         NOTE MI2, HEIGTH
07BF   3464               M     retlw ((HEIGTH<<4)|MI2)
  00000071                M idx SET idx+1
                      02578         NOTE RE3, HEIGTH
07C0   346E               M     retlw ((HEIGTH<<4)|RE3)
  00000072                M idx SET idx+1
                      02579         NOTE DO3, HEIGTH
07C1   346C               M     retlw ((HEIGTH<<4)|DO3)
  00000073                M idx SET idx+1
                      02580         ;21
                      02581         NOTE SI2, QUARTER
07C2   344B               M     retlw ((QUARTER<<4)|SI2)
  00000074                M idx SET idx+1
                      02582         PAUSE HEIGTH
07C3   346F               M     retlw ((HEIGTH<<4)|0xf)
  00000075                M idx SET idx+1
                      02583         NOTE MI2, HEIGTH
07C4   3464               M     retlw ((HEIGTH<<4)|MI2)
  00000076                M idx SET idx+1
                      02584         OCTAVE O3
07C5   34F1               M     retlw OCT_SWITCH|(O3&3)
  00000077                M idx SET idx+1
                      02585         NOTE MI2, HEIGTH
07C6   3464               M     retlw ((HEIGTH<<4)|MI2)
  00000078                M idx SET idx+1
                      02586         PAUSE HEIGTH
07C7   346F               M     retlw ((HEIGTH<<4)|0xf)
  00000079                M idx SET idx+1
                      02587         ;22
                      02588         PAUSE QUARTER
MPASM 5.76  /HOME/JACQUES/GITHUB/SPIDER_WEB/   12-19-2018  11:45:01         PAGE 107


LOC  OBJECT CODE     LINE SOURCE TEXT
  VALUE

07C8   344F               M     retlw ((QUARTER<<4)|0xf)
  0000007A                M idx SET idx+1
                      02589         PAUSE HEIGTH
07C9   346F               M     retlw ((HEIGTH<<4)|0xf)
  0000007B                M idx SET idx+1
                      02590         NOTE RE2D, HEIGTH
07CA   3463               M     retlw ((HEIGTH<<4)|RE2D)
  0000007C                M idx SET idx+1
                      02591         NOTE MI2, HEIGTH
07CB   3464               M     retlw ((HEIGTH<<4)|MI2)
  0000007D                M idx SET idx+1
                      02592         NOTE RE2D, HEIGTH
07CC   3463               M     retlw ((HEIGTH<<4)|RE2D)
  0000007E                M idx SET idx+1
                      02593         ;23
                      02594         NOTE MI2, HEIGTH
07CD   3464               M     retlw ((HEIGTH<<4)|MI2)
  0000007F                M idx SET idx+1
                      02595         NOTE RE2D,HEIGTH
07CE   3463               M     retlw ((HEIGTH<<4)|RE2D)
  00000080                M idx SET idx+1
                      02596         NOTE MI2, HEIGTH
07CF   3464               M     retlw ((HEIGTH<<4)|MI2)
  00000081                M idx SET idx+1
                      02597         NOTE RE2D, HEIGTH
07D0   3463               M     retlw ((HEIGTH<<4)|RE2D)
  00000082                M idx SET idx+1
                      02598         NOTE MI2, HEIGTH
07D1   3464               M     retlw ((HEIGTH<<4)|MI2)
  00000083                M idx SET idx+1
                      02599         NOTE RE2D, HEIGTH
07D2   3463               M     retlw ((HEIGTH<<4)|RE2D)
  00000084                M idx SET idx+1
                      02600         NOTE MI2, HEIGTH
07D3   3464               M     retlw ((HEIGTH<<4)|MI2)
  00000085                M idx SET idx+1
                      02601         NOTE RE2D, HEIGTH
07D4   3463               M     retlw ((HEIGTH<<4)|RE2D)
  00000086                M idx SET idx+1
                      02602         ;24
                      02603         NOTE MI2, HEIGTH
07D5   3464               M     retlw ((HEIGTH<<4)|MI2)
  00000087                M idx SET idx+1
                      02604         NOTE RE2D, HEIGTH
07D6   3463               M     retlw ((HEIGTH<<4)|RE2D)
  00000088                M idx SET idx+1
                      02605         NOTE MI2, HEIGTH
07D7   3464               M     retlw ((HEIGTH<<4)|MI2)
  00000089                M idx SET idx+1
                      02606         OCTAVE O2
07D8   34F0               M     retlw OCT_SWITCH|(O2&3)
  0000008A                M idx SET idx+1
                      02607         NOTE SI2, HEIGTH
MPASM 5.76  /HOME/JACQUES/GITHUB/SPIDER_WEB/   12-19-2018  11:45:01         PAGE 108


LOC  OBJECT CODE     LINE SOURCE TEXT
  VALUE

07D9   346B               M     retlw ((HEIGTH<<4)|SI2)
  0000008B                M idx SET idx+1
                      02608         NOTE RE3, HEIGTH
07DA   346E               M     retlw ((HEIGTH<<4)|RE3)
  0000008C                M idx SET idx+1
                      02609         NOTE DO3, HEIGTH
07DB   346C               M     retlw ((HEIGTH<<4)|DO3)
  0000008D                M idx SET idx+1
                      02610         ;25
                      02611         NOTE LA2, QUARTER
07DC   3449               M     retlw ((QUARTER<<4)|LA2)
  0000008E                M idx SET idx+1
                      02612         PAUSE HEIGTH
07DD   346F               M     retlw ((HEIGTH<<4)|0xf)
  0000008F                M idx SET idx+1
                      02613         NOTE DO2, HEIGTH
07DE   3460               M     retlw ((HEIGTH<<4)|DO2)
  00000090                M idx SET idx+1
                      02614         NOTE MI2, HEIGTH
07DF   3464               M     retlw ((HEIGTH<<4)|MI2)
  00000091                M idx SET idx+1
                      02615         NOTE LA2, HEIGTH
07E0   3469               M     retlw ((HEIGTH<<4)|LA2)
  00000092                M idx SET idx+1
                      02616         ;26
                      02617         NOTE SI2, QUARTER
07E1   344B               M     retlw ((QUARTER<<4)|SI2)
  00000093                M idx SET idx+1
                      02618         PAUSE HEIGTH
07E2   346F               M     retlw ((HEIGTH<<4)|0xf)
  00000094                M idx SET idx+1
                      02619         NOTE MI2, HEIGTH
07E3   3464               M     retlw ((HEIGTH<<4)|MI2)
  00000095                M idx SET idx+1
                      02620         NOTE SOL2D, HEIGTH
07E4   3468               M     retlw ((HEIGTH<<4)|SOL2D)
  00000096                M idx SET idx+1
                      02621         NOTE SI2, HEIGTH
07E5   346B               M     retlw ((HEIGTH<<4)|SI2)
  00000097                M idx SET idx+1
                      02622         ;27
                      02623         NOTE DO3, QUARTER
07E6   344C               M     retlw ((QUARTER<<4)|DO3)
  00000098                M idx SET idx+1
                      02624         PAUSE HEIGTH
07E7   346F               M     retlw ((HEIGTH<<4)|0xf)
  00000099                M idx SET idx+1
                      02625         NOTE MI2, HEIGTH
07E8   3464               M     retlw ((HEIGTH<<4)|MI2)
  0000009A                M idx SET idx+1
                      02626         OCTAVE O3
07E9   34F1               M     retlw OCT_SWITCH|(O3&3)
  0000009B                M idx SET idx+1
MPASM 5.76  /HOME/JACQUES/GITHUB/SPIDER_WEB/   12-19-2018  11:45:01         PAGE 109


LOC  OBJECT CODE     LINE SOURCE TEXT
  VALUE

                      02627         NOTE MI2, HEIGTH
07EA   3464               M     retlw ((HEIGTH<<4)|MI2)
  0000009C                M idx SET idx+1
                      02628         NOTE RE2D, HEIGTH
07EB   3463               M     retlw ((HEIGTH<<4)|RE2D)
  0000009D                M idx SET idx+1
                      02629         ;28
                      02630         NOTE MI2, HEIGTH
07EC   3464               M     retlw ((HEIGTH<<4)|MI2)
  0000009E                M idx SET idx+1
                      02631         NOTE RE2D, HEIGTH
07ED   3463               M     retlw ((HEIGTH<<4)|RE2D)
  0000009F                M idx SET idx+1
                      02632         NOTE MI2, HEIGTH
07EE   3464               M     retlw ((HEIGTH<<4)|MI2)
  000000A0                M idx SET idx+1
                      02633         OCTAVE O2
07EF   34F0               M     retlw OCT_SWITCH|(O2&3)
  000000A1                M idx SET idx+1
                      02634         NOTE SI2, HEIGTH
07F0   346B               M     retlw ((HEIGTH<<4)|SI2)
  000000A2                M idx SET idx+1
                      02635         NOTE RE3, HEIGTH
07F1   346E               M     retlw ((HEIGTH<<4)|RE3)
  000000A3                M idx SET idx+1
                      02636         NOTE DO3, HEIGTH
07F2   346C               M     retlw ((HEIGTH<<4)|DO3)
  000000A4                M idx SET idx+1
                      02637         ;29
                      02638         NOTE LA2, QUARTER
07F3   3449               M     retlw ((QUARTER<<4)|LA2)
  000000A5                M idx SET idx+1
                      02639         PAUSE HEIGTH
07F4   346F               M     retlw ((HEIGTH<<4)|0xf)
  000000A6                M idx SET idx+1
                      02640         NOTE DO2, HEIGTH
07F5   3460               M     retlw ((HEIGTH<<4)|DO2)
  000000A7                M idx SET idx+1
                      02641         NOTE MI2, HEIGTH
07F6   3464               M     retlw ((HEIGTH<<4)|MI2)
  000000A8                M idx SET idx+1
                      02642         NOTE LA2, HEIGTH
07F7   3469               M     retlw ((HEIGTH<<4)|LA2)
  000000A9                M idx SET idx+1
                      02643         ;30
                      02644         NOTE SI2, QUARTER
07F8   344B               M     retlw ((QUARTER<<4)|SI2)
  000000AA                M idx SET idx+1
                      02645         PAUSE HEIGTH
07F9   346F               M     retlw ((HEIGTH<<4)|0xf)
  000000AB                M idx SET idx+1
                      02646         NOTE MI2, HEIGTH
07FA   3464               M     retlw ((HEIGTH<<4)|MI2)
MPASM 5.76  /HOME/JACQUES/GITHUB/SPIDER_WEB/   12-19-2018  11:45:01         PAGE 110


LOC  OBJECT CODE     LINE SOURCE TEXT
  VALUE

  000000AC                M idx SET idx+1
                      02647         NOTE DO3, HEIGTH
07FB   346C               M     retlw ((HEIGTH<<4)|DO3)
  000000AD                M idx SET idx+1
                      02648         NOTE SI2, HEIGTH
07FC   346B               M     retlw ((HEIGTH<<4)|SI2)
  000000AE                M idx SET idx+1
                      02649         ;31
                      02650 ;       NOTE LA2, QUARTER
                      02651 ;       PAUSE HEIGTH
                      02652 ;       NOTE SI2, HEIGTH
                      02653 ;       NOTE DO3, HEIGTH
                      02654 ;       NOTE RE3, HEIGTH
                      02655         ;REPT_LOOP
                      02656         ;32
                      02657         NOTE LA2, HALF
07FD   3429               M     retlw ((HALF<<4)|LA2)
  000000AF                M idx SET idx+1
                      02658         MELODY_END
07FE   34FF               M     retlw STAFF_END
                      02659 
                      02660         
39E4 1DFF             02661         end 
MPASM 5.76  /HOME/JACQUES/GITHUB/SPIDER_WEB/   12-19-2018  11:45:01         PAGE 111


SYMBOL TABLE
  LABEL                             VALUE 

A2                                00000009
A2f                               00000008
A2s                               0000000A
ABDEN                             00000000
ABDOVF                            00000007
ADCON0                            0000009D
ADCON1                            0000009E
ADCON2                            0000009F
ADCS0                             00000004
ADCS1                             00000005
ADCS2                             00000006
ADDEN                             00000003
ADFM                              00000007
ADFVR0                            00000000
ADFVR1                            00000001
ADGO                              00000001
ADIE                              00000006
ADIF                              00000006
ADON                              00000000
ADPREF0                           00000000
ADPREF1                           00000001
ADRES                             0000009B
ADRESH                            0000009C
ADRESL                            0000009B
ANSA0                             00000000
ANSA1                             00000001
ANSA2                             00000002
ANSA4                             00000004
ANSELA                            0000018C
APFCON                            0000011D
APFCON0                           0000011D
B2                                0000000B
B2f                               0000000A
BAUDCON                           0000019F
BILED                             00000DA1
BILEDA_RA                         00000005
BILEDB_RA                         00000004
BILED_IE                          00000005
BILED_IF                          00000005
BILED_PIE                         00000093
BILED_PIR                         00000013
BORCON                            00000116
BORFS                             00000006
BORRDY                            00000000
BRG16                             00000003
BRGH                              00000002
BSR                               00000008
BSR0                              00000000
BSR1                              00000001
BSR2                              00000002
BSR3                              00000003
BSR4                              00000004
BSR_SHAD                          00000FE6
MPASM 5.76  /HOME/JACQUES/GITHUB/SPIDER_WEB/   12-19-2018  11:45:01         PAGE 112


SYMBOL TABLE
  LABEL                             VALUE 

C                                 00000000
C1HYS                             00000001
C1IE                              00000005
C1IF                              00000005
C1INTN                            00000006
C1INTP                            00000007
C1NCH0                            00000000
C1NCH1                            00000001
C1NCH2                            00000002
C1OE                              00000005
C1ON                              00000007
C1OUT                             00000006
C1PCH0                            00000004
C1PCH1                            00000005
C1POL                             00000004
C1SP                              00000002
C1SYNC                            00000000
C2                                00000000
C2s                               00000001
C3                                0000000C
C3s                               0000000D
CDAFVR0                           00000002
CDAFVR1                           00000003
CFGS                              00000006
CHS0                              00000002
CHS1                              00000003
CHS2                              00000004
CHS3                              00000005
CHS4                              00000006
CM1CON0                           00000111
CM1CON1                           00000112
CMD_MASK                          000000C0
CMOUT                             00000115
CPER                              0000007D
CREN                              00000004
CS0                               00000000
CS1                               00000001
CSRC                              00000007
CWG1CON0                          00000693
CWG1CON1                          00000694
CWG1CON2                          00000695
CWG1DBF                           00000692
CWG1DBF0                          00000000
CWG1DBF1                          00000001
CWG1DBF2                          00000002
CWG1DBF3                          00000003
CWG1DBF4                          00000004
CWG1DBF5                          00000005
CWG1DBR                           00000691
CWG1DBR0                          00000000
CWG1DBR1                          00000001
CWG1DBR2                          00000002
CWG1DBR3                          00000003
MPASM 5.76  /HOME/JACQUES/GITHUB/SPIDER_WEB/   12-19-2018  11:45:01         PAGE 113


SYMBOL TABLE
  LABEL                             VALUE 

CWG1DBR4                          00000004
CWG1DBR5                          00000005
CWGASEL                           00000006
CWGBSEL                           00000005
C_SHAD                            00000000
D2                                00000002
D2f                               00000001
D2s                               00000003
D3                                0000000E
D3f                               0000000D
DACCON0                           00000118
DACCON1                           00000119
DACEN                             00000007
DACLPS                            00000006
DACOE                             00000005
DACPSS0                           00000002
DACPSS1                           00000003
DACR0                             00000000
DACR1                             00000001
DACR2                             00000002
DACR3                             00000003
DACR4                             00000004
DC                                00000001
DCIE                              00000001
DCIF                              00000001
DC_SHAD                           00000001
DO2                               00000000
DO2D                              00000001
DO3                               0000000C
DO3D                              0000000D
E2                                00000004
E2f                               00000003
EN                                00000007
ENV                               00000DB1
ENV_CLK                           00003C8C
ENV_INTE                          00000006
ENV_INTF                          00000006
ENV_PIE                           00000093
ENV_PIR                           00000013
ENV_RA                            00000002
F                                 00000001
F2                                00000005
F2s                               00000006
FA2                               00000005
FA2D                              00000006
FCYCLE                            007A1200
FERR                              00000002
FOSC                              01E84800
FREE                              00000004
FSR0                              00000004
FSR0H                             00000005
FSR0H_SHAD                        00000FE9
FSR0L                             00000004
MPASM 5.76  /HOME/JACQUES/GITHUB/SPIDER_WEB/   12-19-2018  11:45:01         PAGE 114


SYMBOL TABLE
  LABEL                             VALUE 

FSR0L_SHAD                        00000FE8
FSR0_SHAD                         00000FE8
FSR1                              00000006
FSR1H                             00000007
FSR1H_SHAD                        00000FEB
FSR1L                             00000006
FSR1L_SHAD                        00000FEA
FSR1_SHAD                         00000FEA
FVRCON                            00000117
FVREN                             00000007
FVRRDY                            00000006
F_DONE                            00000000
F_REPT                            00000002
G1ARSEN                           00000006
G1ASDLA0                          00000004
G1ASDLA1                          00000005
G1ASDLB0                          00000006
G1ASDLB1                          00000007
G1ASDSC1                          00000002
G1ASDSFLT                         00000001
G1ASE                             00000007
G1CS0                             00000000
G1EN                              00000007
G1IS0                             00000000
G1IS1                             00000001
G1IS2                             00000002
G1OEA                             00000005
G1OEB                             00000006
G1POLA                            00000003
G1POLB                            00000004
G2                                00000007
G2f                               00000006
G2s                               00000008
GIE                               00000007
GO                                00000001
GO_NOT_DONE                       00000001
HALF                              00000002
HALF_DOT                          00000003
HBEAT_LED                         00000000
HEIGTH                            00000006
HEIGTH_DOT                        00000007
HFIOFL                            00000003
HFIOFR                            00000004
HFIOFS                            00000000
INDF0                             00000000
INDF1                             00000001
INLVLA                            0000038C
INLVLA0                           00000000
INLVLA1                           00000001
INLVLA2                           00000002
INLVLA3                           00000003
INLVLA4                           00000004
INLVLA5                           00000005
MPASM 5.76  /HOME/JACQUES/GITHUB/SPIDER_WEB/   12-19-2018  11:45:01         PAGE 115


SYMBOL TABLE
  LABEL                             VALUE 

INTCON                            0000000B
INTE                              00000004
INTEDG                            00000006
INTF                              00000001
IOCAF                             00000393
IOCAF0                            00000000
IOCAF1                            00000001
IOCAF2                            00000002
IOCAF3                            00000003
IOCAF4                            00000004
IOCAF5                            00000005
IOCAN                             00000392
IOCAN0                            00000000
IOCAN1                            00000001
IOCAN2                            00000002
IOCAN3                            00000003
IOCAN4                            00000004
IOCAN5                            00000005
IOCAP                             00000391
IOCAP0                            00000000
IOCAP1                            00000001
IOCAP2                            00000002
IOCAP3                            00000003
IOCAP4                            00000004
IOCAP5                            00000005
IOCIE                             00000003
IOCIF                             00000000
IRCF0                             00000003
IRCF1                             00000004
IRCF2                             00000005
IRCF3                             00000006
LA2                               00000009
LA2B                              00000008
LA2D                              0000000A
LATA                              0000010C
LATA0                             00000000
LATA1                             00000001
LATA2                             00000002
LATA4                             00000004
LATA5                             00000005
LDA                               00000007
LDS0                              00000000
LDS1                              00000001
LDT                               00000006
LEGATO                            00000002
LFIOFR                            00000001
LWLO                              00000005
MC1OUT                            00000000
MELODY                            
MELODY_END                        
MFIOFR                            00000002
MI2                               00000004
MI2B                              00000003
MPASM 5.76  /HOME/JACQUES/GITHUB/SPIDER_WEB/   12-19-2018  11:45:01         PAGE 116


SYMBOL TABLE
  LABEL                             VALUE 

MODE0                             00000002
MODE1                             00000003
MPWM1EN                           00000000
MPWM1LD                           00000000
MPWM1OUT                          00000000
MPWM2EN                           00000001
MPWM2LD                           00000001
MPWM2OUT                          00000001
MPWM3EN                           00000002
MPWM3LD                           00000002
MPWM3OUT                          00000002
NORMAL                            00000000
NOTE                              
NOT_BOR                           00000000
NOT_DONE                          00000001
NOT_PD                            00000003
NOT_POR                           00000001
NOT_RI                            00000002
NOT_RMCLR                         00000003
NOT_RWDT                          00000004
NOT_T1SYNC                        00000002
NOT_TO                            00000004
NOT_WPUEN                         00000007
O2                                00000000
O3                                00000001
O4                                00000002
O5                                00000003
OCTAVE                            
OCT_SWITCH                        000000F0
ODA0                              00000000
ODA1                              00000001
ODA2                              00000002
ODA4                              00000004
ODA5                              00000005
ODCONA                            0000028C
OE                                00000006
OERR                              00000001
OFIE                              00000003
OFIF                              00000003
OFM0                              00000005
OFM1                              00000006
OFO                               00000004
OFS0                              00000000
OFS1                              00000001
OPTION_REG                        00000095
OSCCON                            00000099
OSCSTAT                           0000009A
OSCTUNE                           00000098
OSTS                              00000005
OUT                               00000005
P1SEL                             00000000
P2SEL                             00000001
PAUSE                             
MPASM 5.76  /HOME/JACQUES/GITHUB/SPIDER_WEB/   12-19-2018  11:45:01         PAGE 117


SYMBOL TABLE
  LABEL                             VALUE 

PCL                               00000002
PCLATH                            0000000A
PCLATH_SHAD                       00000FE7
PCON                              00000096
PEIE                              00000006
PHIE                              00000002
PHIF                              00000002
PIE1                              00000091
PIE2                              00000092
PIE3                              00000093
PIR1                              00000011
PIR2                              00000012
PIR3                              00000013
PLLR                              00000006
PMADR                             00000191
PMADRH                            00000192
PMADRL                            00000191
PMCON1                            00000195
PMCON2                            00000196
PMDAT                             00000193
PMDATH                            00000194
PMDATL                            00000193
POL                               00000004
PORTA                             0000000C
PR2                               0000001B
PRIE                              00000000
PRIF                              00000000
PR_CNT                            
PS0_OPTION_REG                    00000000
PS0_PWM1CLKCON                    00000004
PS0_PWM2CLKCON                    00000004
PS0_PWM3CLKCON                    00000004
PS1_OPTION_REG                    00000001
PS1_PWM1CLKCON                    00000005
PS1_PWM2CLKCON                    00000005
PS1_PWM3CLKCON                    00000005
PS2_OPTION_REG                    00000002
PS2_PWM1CLKCON                    00000006
PS2_PWM2CLKCON                    00000006
PS2_PWM3CLKCON                    00000006
PSA                               00000003
PWM1CLKCON                        00000D9E
PWM1CON                           00000D9B
PWM1CS0                           00000000
PWM1CS1                           00000001
PWM1DC                            00000D93
PWM1DCH                           00000D94
PWM1DCH0                          00000000
PWM1DCH1                          00000001
PWM1DCH2                          00000002
PWM1DCH3                          00000003
PWM1DCH4                          00000004
PWM1DCH5                          00000005
MPASM 5.76  /HOME/JACQUES/GITHUB/SPIDER_WEB/   12-19-2018  11:45:01         PAGE 118


SYMBOL TABLE
  LABEL                             VALUE 

PWM1DCH6                          00000006
PWM1DCH7                          00000007
PWM1DCIE                          00000001
PWM1DCIF                          00000001
PWM1DCL                           00000D93
PWM1DCL0                          00000000
PWM1DCL1                          00000001
PWM1DCL2                          00000002
PWM1DCL3                          00000003
PWM1DCL4                          00000004
PWM1DCL5                          00000005
PWM1DCL6                          00000006
PWM1DCL7                          00000007
PWM1EN                            00000007
PWM1EN_A                          00000000
PWM1IE                            00000004
PWM1IF                            00000004
PWM1INTCON                        00000D9C
PWM1INTE                          00000D9C
PWM1INTF                          00000D9D
PWM1INTFLG                        00000D9D
PWM1LD                            00000007
PWM1LDA_A                         00000000
PWM1LDCON                         00000D9F
PWM1LDM                           00000006
PWM1LDS0                          00000000
PWM1LDS1                          00000001
PWM1MODE0                         00000002
PWM1MODE1                         00000003
PWM1OE                            00000006
PWM1OF                            00000D97
PWM1OFCON                         00000DA0
PWM1OFH                           00000D98
PWM1OFH0                          00000000
PWM1OFH1                          00000001
PWM1OFH2                          00000002
PWM1OFH3                          00000003
PWM1OFH4                          00000004
PWM1OFH5                          00000005
PWM1OFH6                          00000006
PWM1OFH7                          00000007
PWM1OFIE                          00000003
PWM1OFIF                          00000003
PWM1OFL                           00000D97
PWM1OFL0                          00000000
PWM1OFL1                          00000001
PWM1OFL2                          00000002
PWM1OFL3                          00000003
PWM1OFL4                          00000004
PWM1OFL5                          00000005
PWM1OFL6                          00000006
PWM1OFL7                          00000007
PWM1OFM0                          00000005
MPASM 5.76  /HOME/JACQUES/GITHUB/SPIDER_WEB/   12-19-2018  11:45:01         PAGE 119


SYMBOL TABLE
  LABEL                             VALUE 

PWM1OFM1                          00000006
PWM1OFMC                          00000004
PWM1OFS0                          00000000
PWM1OFS1                          00000001
PWM1OUT                           00000005
PWM1OUT_A                         00000000
PWM1PH                            00000D91
PWM1PHH                           00000D92
PWM1PHH0                          00000000
PWM1PHH1                          00000001
PWM1PHH2                          00000002
PWM1PHH3                          00000003
PWM1PHH4                          00000004
PWM1PHH5                          00000005
PWM1PHH6                          00000006
PWM1PHH7                          00000007
PWM1PHIE                          00000002
PWM1PHIF                          00000002
PWM1PHL                           00000D91
PWM1PHL0                          00000000
PWM1PHL1                          00000001
PWM1PHL2                          00000002
PWM1PHL3                          00000003
PWM1PHL4                          00000004
PWM1PHL5                          00000005
PWM1PHL6                          00000006
PWM1PHL7                          00000007
PWM1POL                           00000004
PWM1PR                            00000D95
PWM1PRH                           00000D96
PWM1PRH0                          00000000
PWM1PRH1                          00000001
PWM1PRH2                          00000002
PWM1PRH3                          00000003
PWM1PRH4                          00000004
PWM1PRH5                          00000005
PWM1PRH6                          00000006
PWM1PRH7                          00000007
PWM1PRIE                          00000000
PWM1PRIF                          00000000
PWM1PRL                           00000D95
PWM1PRL0                          00000000
PWM1PRL1                          00000001
PWM1PRL2                          00000002
PWM1PRL3                          00000003
PWM1PRL4                          00000004
PWM1PRL5                          00000005
PWM1PRL6                          00000006
PWM1PRL7                          00000007
PWM1PS0                           00000004
PWM1PS1                           00000005
PWM1PS2                           00000006
PWM1TMR                           00000D99
MPASM 5.76  /HOME/JACQUES/GITHUB/SPIDER_WEB/   12-19-2018  11:45:01         PAGE 120


SYMBOL TABLE
  LABEL                             VALUE 

PWM1TMRH                          00000D9A
PWM1TMRH0                         00000000
PWM1TMRH1                         00000001
PWM1TMRH2                         00000002
PWM1TMRH3                         00000003
PWM1TMRH4                         00000004
PWM1TMRH5                         00000005
PWM1TMRH6                         00000006
PWM1TMRH7                         00000007
PWM1TMRL                          00000D99
PWM1TMRL0                         00000000
PWM1TMRL1                         00000001
PWM1TMRL2                         00000002
PWM1TMRL3                         00000003
PWM1TMRL4                         00000004
PWM1TMRL5                         00000005
PWM1TMRL6                         00000006
PWM1TMRL7                         00000007
PWM2CLKCON                        00000DAE
PWM2CON                           00000DAB
PWM2CS0                           00000000
PWM2CS1                           00000001
PWM2DC                            00000DA3
PWM2DCH                           00000DA4
PWM2DCH0                          00000000
PWM2DCH1                          00000001
PWM2DCH2                          00000002
PWM2DCH3                          00000003
PWM2DCH4                          00000004
PWM2DCH5                          00000005
PWM2DCH6                          00000006
PWM2DCH7                          00000007
PWM2DCIE                          00000001
PWM2DCIF                          00000001
PWM2DCL                           00000DA3
PWM2DCL0                          00000000
PWM2DCL1                          00000001
PWM2DCL2                          00000002
PWM2DCL3                          00000003
PWM2DCL4                          00000004
PWM2DCL5                          00000005
PWM2DCL6                          00000006
PWM2DCL7                          00000007
PWM2EN                            00000007
PWM2EN_A                          00000001
PWM2IE                            00000005
PWM2IF                            00000005
PWM2INTCON                        00000DAC
PWM2INTE                          00000DAC
PWM2INTF                          00000DAD
PWM2INTFLG                        00000DAD
PWM2LD                            00000007
PWM2LDA_A                         00000001
MPASM 5.76  /HOME/JACQUES/GITHUB/SPIDER_WEB/   12-19-2018  11:45:01         PAGE 121


SYMBOL TABLE
  LABEL                             VALUE 

PWM2LDCON                         00000DAF
PWM2LDM                           00000006
PWM2LDS0                          00000000
PWM2LDS1                          00000001
PWM2MODE0                         00000002
PWM2MODE1                         00000003
PWM2OE                            00000006
PWM2OF                            00000DA7
PWM2OFCON                         00000DB0
PWM2OFH                           00000DA8
PWM2OFH0                          00000000
PWM2OFH1                          00000001
PWM2OFH2                          00000002
PWM2OFH3                          00000003
PWM2OFH4                          00000004
PWM2OFH5                          00000005
PWM2OFH6                          00000006
PWM2OFH7                          00000007
PWM2OFIE                          00000003
PWM2OFIF                          00000003
PWM2OFL                           00000DA7
PWM2OFL0                          00000000
PWM2OFL1                          00000001
PWM2OFL2                          00000002
PWM2OFL3                          00000003
PWM2OFL4                          00000004
PWM2OFL5                          00000005
PWM2OFL6                          00000006
PWM2OFL7                          00000007
PWM2OFM0                          00000005
PWM2OFM1                          00000006
PWM2OFMC                          00000004
PWM2OFS0                          00000000
PWM2OFS1                          00000001
PWM2OUT                           00000005
PWM2OUT_A                         00000001
PWM2PH                            00000DA1
PWM2PHH                           00000DA2
PWM2PHH0                          00000000
PWM2PHH1                          00000001
PWM2PHH2                          00000002
PWM2PHH3                          00000003
PWM2PHH4                          00000004
PWM2PHH5                          00000005
PWM2PHH6                          00000006
PWM2PHH7                          00000007
PWM2PHIE                          00000002
PWM2PHIF                          00000002
PWM2PHL                           00000DA1
PWM2PHL0                          00000000
PWM2PHL1                          00000001
PWM2PHL2                          00000002
PWM2PHL3                          00000003
MPASM 5.76  /HOME/JACQUES/GITHUB/SPIDER_WEB/   12-19-2018  11:45:01         PAGE 122


SYMBOL TABLE
  LABEL                             VALUE 

PWM2PHL4                          00000004
PWM2PHL5                          00000005
PWM2PHL6                          00000006
PWM2PHL7                          00000007
PWM2POL                           00000004
PWM2PR                            00000DA5
PWM2PRH                           00000DA6
PWM2PRH0                          00000000
PWM2PRH1                          00000001
PWM2PRH2                          00000002
PWM2PRH3                          00000003
PWM2PRH4                          00000004
PWM2PRH5                          00000005
PWM2PRH6                          00000006
PWM2PRH7                          00000007
PWM2PRIE                          00000000
PWM2PRIF                          00000000
PWM2PRL                           00000DA5
PWM2PRL0                          00000000
PWM2PRL1                          00000001
PWM2PRL2                          00000002
PWM2PRL3                          00000003
PWM2PRL4                          00000004
PWM2PRL5                          00000005
PWM2PRL6                          00000006
PWM2PRL7                          00000007
PWM2PS0                           00000004
PWM2PS1                           00000005
PWM2PS2                           00000006
PWM2TMR                           00000DA9
PWM2TMRH                          00000DAA
PWM2TMRH0                         00000000
PWM2TMRH1                         00000001
PWM2TMRH2                         00000002
PWM2TMRH3                         00000003
PWM2TMRH4                         00000004
PWM2TMRH5                         00000005
PWM2TMRH6                         00000006
PWM2TMRH7                         00000007
PWM2TMRL                          00000DA9
PWM2TMRL0                         00000000
PWM2TMRL1                         00000001
PWM2TMRL2                         00000002
PWM2TMRL3                         00000003
PWM2TMRL4                         00000004
PWM2TMRL5                         00000005
PWM2TMRL6                         00000006
PWM2TMRL7                         00000007
PWM3CLKCON                        00000DBE
PWM3CON                           00000DBB
PWM3CS0                           00000000
PWM3CS1                           00000001
PWM3DC                            00000DB3
MPASM 5.76  /HOME/JACQUES/GITHUB/SPIDER_WEB/   12-19-2018  11:45:01         PAGE 123


SYMBOL TABLE
  LABEL                             VALUE 

PWM3DCH                           00000DB4
PWM3DCH0                          00000000
PWM3DCH1                          00000001
PWM3DCH2                          00000002
PWM3DCH3                          00000003
PWM3DCH4                          00000004
PWM3DCH5                          00000005
PWM3DCH6                          00000006
PWM3DCH7                          00000007
PWM3DCIE                          00000001
PWM3DCIF                          00000001
PWM3DCL                           00000DB3
PWM3DCL0                          00000000
PWM3DCL1                          00000001
PWM3DCL2                          00000002
PWM3DCL3                          00000003
PWM3DCL4                          00000004
PWM3DCL5                          00000005
PWM3DCL6                          00000006
PWM3DCL7                          00000007
PWM3EN                            00000007
PWM3EN_A                          00000002
PWM3IE                            00000006
PWM3IF                            00000006
PWM3INTCON                        00000DBC
PWM3INTE                          00000DBC
PWM3INTF                          00000DBD
PWM3INTFLG                        00000DBD
PWM3LD                            00000007
PWM3LDA_A                         00000002
PWM3LDCON                         00000DBF
PWM3LDM                           00000006
PWM3LDS0                          00000000
PWM3LDS1                          00000001
PWM3MODE0                         00000002
PWM3MODE1                         00000003
PWM3OE                            00000006
PWM3OF                            00000DB7
PWM3OFCON                         00000DC0
PWM3OFH                           00000DB8
PWM3OFH0                          00000000
PWM3OFH1                          00000001
PWM3OFH2                          00000002
PWM3OFH3                          00000003
PWM3OFH4                          00000004
PWM3OFH5                          00000005
PWM3OFH6                          00000006
PWM3OFH7                          00000007
PWM3OFIE                          00000003
PWM3OFIF                          00000003
PWM3OFL                           00000DB7
PWM3OFL0                          00000000
PWM3OFL1                          00000001
MPASM 5.76  /HOME/JACQUES/GITHUB/SPIDER_WEB/   12-19-2018  11:45:01         PAGE 124


SYMBOL TABLE
  LABEL                             VALUE 

PWM3OFL2                          00000002
PWM3OFL3                          00000003
PWM3OFL4                          00000004
PWM3OFL5                          00000005
PWM3OFL6                          00000006
PWM3OFL7                          00000007
PWM3OFM0                          00000005
PWM3OFM1                          00000006
PWM3OFMC                          00000004
PWM3OFS0                          00000000
PWM3OFS1                          00000001
PWM3OUT                           00000005
PWM3OUT_A                         00000002
PWM3PH                            00000DB1
PWM3PHH                           00000DB2
PWM3PHH0                          00000000
PWM3PHH1                          00000001
PWM3PHH2                          00000002
PWM3PHH3                          00000003
PWM3PHH4                          00000004
PWM3PHH5                          00000005
PWM3PHH6                          00000006
PWM3PHH7                          00000007
PWM3PHIE                          00000002
PWM3PHIF                          00000002
PWM3PHL                           00000DB1
PWM3PHL0                          00000000
PWM3PHL1                          00000001
PWM3PHL2                          00000002
PWM3PHL3                          00000003
PWM3PHL4                          00000004
PWM3PHL5                          00000005
PWM3PHL6                          00000006
PWM3PHL7                          00000007
PWM3POL                           00000004
PWM3PR                            00000DB5
PWM3PRH                           00000DB6
PWM3PRH0                          00000000
PWM3PRH1                          00000001
PWM3PRH2                          00000002
PWM3PRH3                          00000003
PWM3PRH4                          00000004
PWM3PRH5                          00000005
PWM3PRH6                          00000006
PWM3PRH7                          00000007
PWM3PRIE                          00000000
PWM3PRIF                          00000000
PWM3PRL                           00000DB5
PWM3PRL0                          00000000
PWM3PRL1                          00000001
PWM3PRL2                          00000002
PWM3PRL3                          00000003
PWM3PRL4                          00000004
MPASM 5.76  /HOME/JACQUES/GITHUB/SPIDER_WEB/   12-19-2018  11:45:01         PAGE 125


SYMBOL TABLE
  LABEL                             VALUE 

PWM3PRL5                          00000005
PWM3PRL6                          00000006
PWM3PRL7                          00000007
PWM3PS0                           00000004
PWM3PS1                           00000005
PWM3PS2                           00000006
PWM3TMR                           00000DB9
PWM3TMRH                          00000DBA
PWM3TMRH0                         00000000
PWM3TMRH1                         00000001
PWM3TMRH2                         00000002
PWM3TMRH3                         00000003
PWM3TMRH4                         00000004
PWM3TMRH5                         00000005
PWM3TMRH6                         00000006
PWM3TMRH7                         00000007
PWM3TMRL                          00000DB9
PWM3TMRL0                         00000000
PWM3TMRL1                         00000001
PWM3TMRL2                         00000002
PWM3TMRL3                         00000003
PWM3TMRL4                         00000004
PWM3TMRL5                         00000005
PWM3TMRL6                         00000006
PWM3TMRL7                         00000007
PWMCLKCON                         0000000D
PWMCON                            0000000A
PWMCS                             00000000
PWMDCH                            00000003
PWMDCL                            00000002
PWMEN                             00000D8E
PWMINTE                           0000000B
PWMINTF                           0000000C
PWMLD                             00000D8F
PWMLDCON                          0000000E
PWMOFCON                          0000000F
PWMOFH                            00000007
PWMOFL                            00000006
PWMOUT                            00000D90
PWMPHH                            00000001
PWMPHL                            00000000
PWMPRH                            00000005
PWMPRL                            00000004
PWMPS                             00000004
PWMTMRH                           00000009
PWMTMRL                           00000008
QUARTER                           00000004
QUARTER_DOT                       00000005
RA0                               00000000
RA1                               00000001
RA2                               00000002
RA3                               00000003
RA4                               00000004
MPASM 5.76  /HOME/JACQUES/GITHUB/SPIDER_WEB/   12-19-2018  11:45:01         PAGE 126


SYMBOL TABLE
  LABEL                             VALUE 

RA5                               00000005
RCIDL                             00000006
RCIE                              00000005
RCIF                              00000005
RCREG                             00000199
RCSTA                             0000019D
RD                                00000000
RE2                               00000002
RE2B                              00000001
RE2D                              00000003
RE3                               0000000E
RE3B                              0000000D
REPT_BAR                          000000C0
REPT_END                          000000D0
REPT_LOOP                         
REPT_START                        
RX9                               00000006
RX9D                              00000000
RXDTSEL                           00000007
SBOREN                            00000007
SCKP                              00000004
SCS0                              00000000
SCS1                              00000001
SENDB                             00000003
SI2                               0000000B
SI2B                              0000000A
SIXTEENTH                         00000008
SIXTEENTH_DOT                     00000009
SLRA0                             00000000
SLRA1                             00000001
SLRA2                             00000002
SLRA4                             00000004
SLRA5                             00000005
SLRCONA                           0000030C
SOL2                              00000007
SOL2B                             00000006
SOL2D                             00000008
SPBRG                             0000019B
SPBRGH                            0000019C
SPBRGL                            0000019B
SPEN                              00000007
SPLLEN                            00000007
SREN                              00000005
STACCATO                          00000001
STAFF_END                         000000FF
STATUS                            00000003
STATUS_SHAD                       00000FE4
STKOVF                            00000007
STKPTR                            00000FED
STKUNF                            00000006
STROKE                            
STROKE_SWITCH                     000000E0
SWDTEN                            00000000
MPASM 5.76  /HOME/JACQUES/GITHUB/SPIDER_WEB/   12-19-2018  11:45:01         PAGE 127


SYMBOL TABLE
  LABEL                             VALUE 

SYNC                              00000004
T0CS                              00000005
T0IE                              00000005
T0IF                              00000002
T0SE                              00000004
T1CKPS0                           00000004
T1CKPS1                           00000005
T1CON                             00000018
T1GCON                            00000019
T1GGO                             00000003
T1GGO_NOT_DONE                    00000003
T1GPOL                            00000006
T1GSEL                            00000003
T1GSPM                            00000004
T1GSS0                            00000000
T1GSS1                            00000001
T1GTM                             00000005
T1GVAL                            00000002
T2CKPS0                           00000000
T2CKPS1                           00000001
T2CON                             0000001C
T2OUTPS0                          00000003
T2OUTPS1                          00000004
T2OUTPS2                          00000005
T2OUTPS3                          00000006
TEMPO                             
TMR0                              00000015
TMR0CS                            00000005
TMR0IE                            00000005
TMR0IF                            00000002
TMR0SE                            00000004
TMR1                              00000016
TMR1CS0                           00000006
TMR1CS1                           00000007
TMR1GE                            00000007
TMR1GIE                           00000007
TMR1GIF                           00000007
TMR1H                             00000017
TMR1IE                            00000000
TMR1IF                            00000000
TMR1L                             00000016
TMR1ON                            00000000
TMR2                              0000001A
TMR2IE                            00000001
TMR2IF                            00000001
TMR2ON                            00000002
TONE                              00000D91
TONE_RA                           00000000
TOS                               00000FEE
TOSH                              00000FEF
TOSL                              00000FEE
TRIGSEL0                          00000004
TRIGSEL1                          00000005
MPASM 5.76  /HOME/JACQUES/GITHUB/SPIDER_WEB/   12-19-2018  11:45:01         PAGE 128


SYMBOL TABLE
  LABEL                             VALUE 

TRIGSEL2                          00000006
TRIGSEL3                          00000007
TRISA                             0000008C
TRISA0                            00000000
TRISA1                            00000001
TRISA2                            00000002
TRISA3                            00000003
TRISA4                            00000004
TRISA5                            00000005
TRMT                              00000001
TSEN                              00000005
TSRNG                             00000004
TUN0                              00000000
TUN1                              00000001
TUN2                              00000002
TUN3                              00000003
TUN4                              00000004
TUN5                              00000005
TX9                               00000006
TX9D                              00000000
TXCKSEL                           00000002
TXEN                              00000005
TXIE                              00000004
TXIF                              00000004
TXREG                             0000019A
TXSTA                             0000019E
VREGCON                           00000197
VREGPM                            00000001
W                                 00000000
WDTCON                            00000097
WDTPS0                            00000001
WDTPS1                            00000002
WDTPS2                            00000003
WDTPS3                            00000004
WDTPS4                            00000005
WHOLE                             00000000
WHOLE_DOT                         00000001
WPUA                              0000020C
WPUA0                             00000000
WPUA1                             00000001
WPUA2                             00000002
WPUA3                             00000003
WPUA4                             00000004
WPUA5                             00000005
WR                                00000001
WREG                              00000009
WREG_SHAD                         00000FE5
WREN                              00000002
WRERR                             00000003
WUE                               00000001
Z                                 00000002
Z_SHAD                            00000002
_.org_1_00D9                      000000D9
MPASM 5.76  /HOME/JACQUES/GITHUB/SPIDER_WEB/   12-19-2018  11:45:01         PAGE 129


SYMBOL TABLE
  LABEL                             VALUE 

_.org_1_00E4                      000000E4
_.org_1_0166                      00000166
_.org_1_0179                      00000179
_BOREN_NSLEEP                     00003DFF
_BOREN_OFF                        000039FF
_BOREN_ON                         00003FFF
_BOREN_SBODEN                     00003BFF
_BORV_19                          00003FFF
_BORV_HI                          00003BFF
_BORV_LO                          00003FFF
_CLKOUTEN_OFF                     00003FFF
_CLKOUTEN_ON                      000037FF
_CONFIG1                          00008007
_CONFIG2                          00008008
_CP_OFF                           00003FFF
_CP_ON                            00003F7F
_DEVID1                           00008006
_FOSC_ECH                         00003FFF
_FOSC_ECL                         00003FFD
_FOSC_ECM                         00003FFE
_FOSC_INTOSC                      00003FFC
_IDLOC0                           00008000
_IDLOC1                           00008001
_IDLOC2                           00008002
_IDLOC3                           00008003
_LPBOREN_OFF                      00003FFF
_LPBOREN_ON                       000037FF
_LVP_OFF                          00001FFF
_LVP_ON                           00003FFF
_MCLRE_OFF                        00003FBF
_MCLRE_ON                         00003FFF
_PLLEN_OFF                        00003EFF
_PLLEN_ON                         00003FFF
_PWRTE_OFF                        00003FFF
_PWRTE_ON                         00003FDF
_STVREN_OFF                       00003DFF
_STVREN_ON                        00003FFF
_WDTE_NSLEEP                      00003FF7
_WDTE_OFF                         00003FE7
_WDTE_ON                          00003FFF
_WDTE_SWDTEN                      00003FEF
_WRT_ALL                          00003FFC
_WRT_BOOT                         00003FFE
_WRT_HALF                         00003FFD
_WRT_OFF                          00003FFF
__12F1572                         00000001
a_bytown                          00000340
accH                              0000007A
accL                              00000079
amazing_grace                     000003D1
beau_sapin                        00000620
bon_tabac                         000005D5
case                              
MPASM 5.76  /HOME/JACQUES/GITHUB/SPIDER_WEB/   12-19-2018  11:45:01         PAGE 130


SYMBOL TABLE
  LABEL                             VALUE 

change_dc                         00000016
claire_fontaine                   000006DA
cmd_octave                        00000138
cmd_repeat_bar                    00000140
cmd_repeat_loop                   00000146
cmd_stroke                        0000013C
config_led_control                0000009F
deutschlandlied                   000002DD
div256                            00000107
div2_loop                         00000188
div8                              000001BB
div8_done                         000001C3
div_done                          00000190
douce_nuit                        0000023D
durationH                         0000007C
durationL                         0000007B
env_disable                       
env_enable                        
env_isr                           0000001B
flags                             00000070
frere_jacques                     0000051E
fur_elise                         00000748
go_down_moses                     0000037D
god_save_the_queen                00000472
greensleeves                      0000040B
idx                               000000AF
init                              000000BF
invert_slope                      00000014
isr                               00000004
isr_exit                          00000022
jingle_bell                       00000659
joyeux_anniv                      000005FD
korobeiniki                       0000059C
l_hiver                           000001EA
led_ctrl_isr                      00000004
led_dc_inc                        0000007D
legato_mode                       000001B9
low_power                         00000150
main                              000000F7
melodia                           000004AA
melody_done                       0000014C
morning_has_broken                0000070D
negative_slope                    0000000A
normal_mode                       000001A7
note_idx                          00000071
o_canada                          00000275
oct_adj_done                      000001DA
oct_adj_loop                      000001D7
octave                            00000073
ode_joy                           00000549
pause                             0000015F
play                              00000074
play_list                         00000087
MPASM 5.76  /HOME/JACQUES/GITHUB/SPIDER_WEB/   12-19-2018  11:45:01         PAGE 131


SYMBOL TABLE
  LABEL                             VALUE 

play_note                         0000016A
positive_slope                    0000000F
repeat_mark                       00000072
reset_list                        000000F6
roi_dagobert                      000004E0
scale                             00000025
set_biled_per                     0000010F
set_duration                      0000019B
set_envelope                      0000017F
set_tone_freq                     000001D1
staccato_mode                     000001B5
stack                             00000020
staff_loop                        00000113
stroke                            00000075
temp3                             00000078
tempH                             00000077
tempL                             00000076
tone                              00000135
tone_disable                      
tone_enable                       
update_dc                         000001CB
update_env                        000001CF

Errors   :     0
Warnings :     0 reported,     0 suppressed
Messages :   105 reported,     0 suppressed

